
inheritance:	file format mach-o arm64
Contents of section __TEXT,__text:
 100002f8c ff4301d1 fd7b04a9 fd030191 08008052  .C...{.........R
 100002f9c e81700b9 bfc31fb8 a0831fb8 a1031ff8  ................
 100002fac a06300d1 e00700f9 19000094 e80740f9  .c............@.
 100002fbc e90308aa e91300f9 e80f00f9 e01340f9  ..............@.
 100002fcc 080040f9 080140f9 00013fd6 e00f40f9  ..@...@...?...@.
 100002fdc 080040f9 080140f9 00013fd6 000000d0  ..@...@...?.....
 100002fec 002440f9 010000b0 21903a91 13000094  .$@.....!.:.....
 100002ffc 010000b0 21e00291 22000094 e01740b9  ....!...".....@.
 10000300c fd7b44a9 ff430191 c0035fd6 ff8300d1  .{D..C...._.....
 10000301c fd7b01a9 fd430091 e00700f9 e00740f9  .{...C........@.
 10000302c e00300f9 38000094 e00340f9 fd7b41a9  ....8.....@..{A.
 10000303c ff830091 c0035fd6 ffc300d1 fd7b02a9  ......_......{..
 10000304c fd830091 a0831ff8 e10b00f9 a8835ff8  .............._.
 10000305c e80700f9 e80b40f9 e80300f9 e00b40f9  ......@.......@.
 10000306c f0000094 e10340f9 e20300aa e00740f9  ......@.......@.
 10000307c 71000094 fd7b42a9 ffc30091 c0035fd6  q....{B......._.
 10000308c ff8300d1 fd7b01a9 fd430091 e00700f9  .....{...C......
 10000309c e10300f9 e00740f9 e80340f9 00013fd6  ......@...@...?.
 1000030ac fd7b41a9 ff830091 c0035fd6 ff8300d1  .{A......._.....
 1000030bc fd7b01a9 fd430091 e00700f9 e80740f9  .{...C........@.
 1000030cc e80300f9 e80740f9 090140f9 29815ef8  ......@...@.).^.
 1000030dc 0001098b 41018052 d1020094 e80300aa  ....A..R........
 1000030ec e00340f9 011d0013 2c030094 e00740f9  ..@.....,.....@.
 1000030fc 2d030094 e00740f9 fd7b41a9 ff830091  -.....@..{A.....
 10000310c c0035fd6 ff8300d1 fd7b01a9 fd430091  .._......{...C..
 10000311c e00700f9 e00740f9 e00300f9 12000094  ......@.........
 10000312c e90340f9 080000b0 08610291 08410091  ..@......a...A..
 10000313c 280100f9 000000b0 002440f9 01000090  (........$@.....
 10000314c 21c43a91 bdffff97 01000090 21e00291  !.:.........!...
 10000315c ccffff97 e00340f9 fd7b41a9 ff830091  ......@..{A.....
 10000316c c0035fd6 ff8300d1 fd7b01a9 fd430091  .._......{...C..
 10000317c e00700f9 e90740f9 e90300f9 080000b0  ......@.........
 10000318c 08610391 08410091 280100f9 000000b0  .a...A..(.......
 10000319c 002440f9 01000090 21303b91 a7ffff97  .$@.....!0;.....
 1000031ac 01000090 21e00291 b6ffff97 e00340f9  ....!.........@.
 1000031bc fd7b41a9 ff830091 c0035fd6 ff8300d1  .{A......._.....
 1000031cc fd7b01a9 fd430091 e00700f9 000000b0  .{...C..........
 1000031dc 002440f9 01000090 21b43b91 97ffff97  .$@.....!.;.....
 1000031ec 01000090 21e00291 a6ffff97 fd7b41a9  ....!........{A.
 1000031fc ff830091 c0035fd6 ff8300d1 fd7b01a9  ......_......{..
 10000320c fd430091 e00700f9 000000b0 002440f9  .C...........$@.
 10000321c 01000090 21903b91 88ffff97 01000090  ....!.;.........
 10000322c 21e00291 97ffff97 fd7b41a9 ff830091  !........{A.....
 10000323c c0035fd6 ff8302d1 fd7b09a9 fd430291  .._......{...C..
 10000324c a0831ff8 a1031ff8 a2831ef8 a1835ff8  .............._.
 10000325c a0a300d1 d7020094 01000014 a0a300d1  ................
 10000326c 7d000094 e04700b9 01000014 e84740b9  }....G.......G@.
 10000327c 080c0036 01000014 a1835ff8 e0230191  ...6......_..#..
 10000328c 0c010094 a8035ff8 e81f00f9 a8835ff8  ......_......._.
 10000329c 090140f9 29815ef8 0001098b 12010094  ..@.).^.........
 1000032ac e04300b9 01000014 e84340b9 09168052  .C.......C@....R
 1000032bc 0801090a 08810071 e8079f1a e8000037  .......q.......7
 1000032cc 01000014 a8035ff8 a9835ef8 0801098b  ......_...^.....
 1000032dc e81b00f9 04000014 a8035ff8 e81b00f9  .........._.....
 1000032ec 01000014 e81b40f9 e80b00f9 a8035ff8  ......@......._.
 1000032fc a9835ef8 0801098b e80f00f9 a8835ff8  ..^..........._.
 10000330c 090140f9 29815ef8 0801098b e81300f9  ..@.).^.........
 10000331c a8835ff8 090140f9 29815ef8 0001098b  .._...@.).^.....
 10000332c f7000094 e02f00b9 01000014 e82f40b9  ...../......./@.
 10000333c e41340f9 e30f40f9 e20b40f9 e11f40f9  ..@...@...@...@.
 10000334c e02740f9 051d0013 4a000094 e00700f9  .'@.....J.......
 10000335c 01000014 e80740f9 a00301d1 a8031cf8  ......@.........
 10000336c 00010094 40040036 01000014 a8835ff8  ....@..6......_.
 10000337c 090140f9 29815ef8 0001098b a1008052  ..@.).^........R
 10000338c 01010094 01000014 19000014 a0031df8  ................
 10000339c e80301aa a8c31cb8 07000014 a0031df8  ................
 1000033ac e80301aa a8c31cb8 a0a300d1 84020094  ................
 1000033bc 01000014 a0035df8 90020094 a8835ff8  ......]......._.
 1000033cc 090140f9 29815ef8 0001098b 82020094  ..@.).^.........
 1000033dc 01000014 8c020094 01000014 a0835ff8  .............._.
 1000033ec fd7b49a9 ff830291 c0035fd6 01000014  .{I......._.....
 1000033fc a0a300d1 72020094 f9ffff17 a0031df8  ....r...........
 10000340c e80301aa a8c31cb8 7f020094 01000014  ................
 10000341c 01000014 a0035df8 51020094 e5000094  ......].Q.......
 10000342c ff8300d1 fd7b01a9 fd430091 e00700f9  .....{...C......
 10000343c e00740f9 41020094 e00300f9 01000014  ..@.A...........
 10000344c e00340f9 fd7b41a9 ff830091 c0035fd6  ..@..{A......._.
 10000345c d8000094 ff4300d1 e00700f9 e80740f9  .....C........@.
 10000346c 08014039 00010012 ff430091 c0035fd6  ..@9.....C...._.
 10000347c ff8302d1 fd7b09a9 fd430291 a0031ff8  .....{...C......
 10000348c a1831ef8 a2031ef8 a3831df8 a4031df8  ................
 10000349c a5f31c38 a8035ff8 080100f1 e8079f1a  ...8.._.........
 1000034ac a8000037 01000014 a8035ff8 a8831ff8  ...7......_.....
 1000034bc 7a000014 a8835df8 a9835ef8 080109eb  z.....]...^.....
 1000034cc a8031cf8 a0035df8 be000094 e02700f9  ......]......'..
 1000034dc e82740f9 a9035cf8 080109eb e8c79f1a  .'@...\.........
 1000034ec e8000037 01000014 a9035cf8 e82740f9  ...7......\..'@.
 1000034fc 080109eb e82700f9 03000014 ff2700f9  .....'.......'..
 10000350c 01000014 a8035ef8 a9835ef8 080109eb  ......^...^.....
 10000351c e82300f9 e82340f9 080100f1 e8c79f1a  .#...#@.........
 10000352c 08020037 01000014 a0035ff8 a1835ef8  ...7......_...^.
 10000353c e22340f9 a9000094 e82340f9 080008eb  .#@......#@.....
 10000354c e8179f1a c8000037 01000014 bf031ff8  .......7........
 10000355c a8035ff8 a8831ff8 50000014 01000014  .._.....P.......
 10000356c e82740f9 080100f1 e8c79f1a c8050037  .'@............7
 10000357c 01000014 e12740f9 a2f3dc38 e0a30091  .....'@....8....
 10000358c e00300f9 a4000094 e00340f9 a8035ff8  ..........@..._.
 10000359c e80700f9 af000094 e10300aa e00740f9  ..............@.
 1000035ac e22740f9 8d000094 e00b00f9 01000014  .'@.............
 1000035bc e80b40f9 e92740f9 080109eb e8179f1a  ..@..'@.........
 1000035cc c8010037 01000014 bf031ff8 a8035ff8  ...7.........._.
 1000035dc a8831ff8 28008052 e81b00b9 09000014  ....(..R........
 1000035ec e01300f9 e80301aa e81f00b9 e0a30091  ................
 1000035fc e7010094 2d000014 ff1b00b9 01000014  ....-...........
 10000360c e0a30091 e2010094 e81b40b9 08010071  ..........@....q
 10000361c e8179f1a 68000037 01000014 1f000014  ....h..7........
 10000362c 01000014 a8835df8 a9035ef8 080109eb  ......]...^.....
 10000363c e82300f9 e82340f9 080100f1 e8c79f1a  .#...#@.........
 10000364c 08020037 01000014 a0035ff8 a1035ef8  ...7......_...^.
 10000365c e22340f9 61000094 e82340f9 080008eb  .#@.a....#@.....
 10000366c e8179f1a c8000037 01000014 bf031ff8  .......7........
 10000367c a8035ff8 a8831ff8 08000014 01000014  .._.............
 10000368c a0035df8 010080d2 7c000094 a8035ff8  ..].....|....._.
 10000369c a8831ff8 01000014 a0835ff8 fd7b49a9  .........._..{I.
 1000036ac ff830291 c0035fd6 e01340f9 ac010094  ......_...@.....
 1000036bc ffc300d1 fd7b02a9 fd830091 a0831ff8  .....{..........
 1000036cc e10b00f9 a0835ff8 e00700f9 e10b40f9  ......_.......@.
 1000036dc 23010094 e00740f9 fd7b42a9 ffc30091  #.....@..{B.....
 1000036ec c0035fd6 ff4300d1 e00700f9 e80740f9  .._..C........@.
 1000036fc 000940b9 ff430091 c0035fd6 ff8300d1  ..@..C...._.....
 10000370c fd7b01a9 fd430091 e00700f9 e80740f9  .{...C........@.
 10000371c e80300f9 40010094 e80340f9 019140b9  ....@.....@...@.
 10000372c 33010094 20010036 01000014 e00340f9  3... ..6......@.
 10000373c 01048052 3a010094 e90340f9 081c0013  ...R:.....@.....
 10000374c 289100b9 01000014 e80340f9 089140b9  (.........@...@.
 10000375c 001d0013 fd7b41a9 ff830091 c0035fd6  .....{A......._.
 10000376c ff4300d1 e00700f9 e80740f9 080140f9  .C........@...@.
 10000377c 080100f1 e8179f1a 00010012 ff430091  .............C..
 10000378c c0035fd6 ff8300d1 fd7b01a9 fd430091  .._......{...C..
 10000379c e00700f9 e10700b9 e00740f9 e10740b9  ..........@...@.
 1000037ac 59010094 fd7b41a9 ff830091 c0035fd6  Y....{A......._.
 1000037bc fd7bbfa9 fd030091 90010094 8c010094  .{..............
 1000037cc ff4300d1 e00700f9 e80740f9 000d40f9  .C........@...@.
 1000037dc ff430091 c0035fd6 ffc300d1 fd7b02a9  .C...._......{..
 1000037ec fd830091 a0831ff8 e10b00f9 e20700f9  ................
 1000037fc a0835ff8 e10b40f9 e20740f9 080040f9  .._...@...@...@.
 10000380c 083140f9 00013fd6 fd7b42a9 ffc30091  .1@...?..{B.....
 10000381c c0035fd6 ffc300d1 fd7b02a9 fd830091  .._......{......
 10000382c a0831ff8 e10b00f9 e23f0039 a0835ff8  .........?.9.._.
 10000383c e00300f9 e10b40f9 e23fc039 1a000094  ......@..?.9....
 10000384c e00340f9 fd7b42a9 ffc30091 c0035fd6  ..@..{B......._.
 10000385c ff8300d1 fd7b01a9 fd430091 e00700f9  .....{...C......
 10000386c e00740f9 66000094 60000094 fd7b41a9  ..@.f...`....{A.
 10000387c ff830091 c0035fd6 ff8300d1 e00f00f9  ......_.........
 10000388c e10b00f9 e90f40f9 280d40f9 e80700f9  ......@.(.@.....
 10000389c e80b40f9 280d00f9 e00740f9 ff830091  ..@.(.....@.....
 1000038ac c0035fd6 ffc300d1 fd7b02a9 fd830091  .._......{......
 1000038bc a0831ff8 e10b00f9 e23f0039 a0835ff8  .........?.9.._.
 1000038cc e00300f9 e13b0091 e2370091 09000094  .....;...7......
 1000038dc e00340f9 e10b40f9 e23fc039 29010094  ..@...@..?.9)...
 1000038ec e00340f9 fd7b42a9 ffc30091 c0035fd6  ..@..{B......._.
 1000038fc ffc300d1 fd7b02a9 fd830091 a0831ff8  .....{..........
 10000390c e10b00f9 e20700f9 a0835ff8 e00300f9  .........._.....
 10000391c e10b40f9 e20740f9 05000094 e00340f9  ..@...@.......@.
 10000392c fd7b42a9 ffc30091 c0035fd6 ff0301d1  .{B......._.....
 10000393c fd7b03a9 fdc30091 a0831ff8 a1031ff8  .{..............
 10000394c e20f00f9 a0835ff8 e00700f9 07000094  ......_.........
 10000395c e00740f9 0a000094 e00740f9 fd7b43a9  ..@.......@..{C.
 10000396c ff030191 c0035fd6 ff4300d1 e00300f9  ......_..C......
 10000397c e00340f9 ff430091 c0035fd6 ffc300d1  ..@..C...._.....
 10000398c fd7b02a9 fd830091 e00b00f9 e00b40f9  .{............@.
 10000399c e00700f9 05000094 e00740f9 fd7b42a9  ..........@..{B.
 1000039ac ffc30091 c0035fd6 ff8300d1 fd7b01a9  ......_......{..
 1000039bc fd430091 e00700f9 e00740f9 e00300f9  .C........@.....
 1000039cc 05000094 e00340f9 fd7b41a9 ff830091  ......@..{A.....
 1000039dc c0035fd6 ff4300d1 e00700f9 e00740f9  .._..C........@.
 1000039ec ff430091 c0035fd6 ff4300d1 e00700f9  .C...._..C......
 1000039fc e00740f9 ff430091 c0035fd6 ffc300d1  ..@..C...._.....
 100003a0c fd7b02a9 fd830091 a0831ff8 a0835ff8  .{............_.
 100003a1c e00b00f9 0f000094 c0000036 01000014  ...........6....
 100003a2c e00b40f9 19000094 e00700f9 05000014  ..@.............
 100003a3c e00b40f9 1f000094 e00700f9 01000014  ..@.............
 100003a4c e00740f9 fd7b42a9 ffc30091 c0035fd6  ..@..{B......._.
 100003a5c ff8300d1 fd7b01a9 fd430091 e00700f9  .....{...C......
 100003a6c e00740f9 1d000094 085c4039 087d0753  ..@......\@9.}.S
 100003a7c 081d0072 e8079f1a 00010012 fd7b41a9  ...r.........{A.
 100003a8c ff830091 c0035fd6 ff8300d1 fd7b01a9  ......_......{..
 100003a9c fd430091 e00700f9 e00740f9 1d000094  .C........@.....
 100003aac 000040f9 fd7b41a9 ff830091 c0035fd6  ..@..{A......._.
 100003abc ff8300d1 fd7b01a9 fd430091 e00700f9  .....{...C......
 100003acc e00740f9 13000094 20000094 fd7b41a9  ..@..... ....{A.
 100003adc ff830091 c0035fd6 ff8300d1 fd7b01a9  ......_......{..
 100003aec fd430091 e00700f9 e00740f9 04000094  .C........@.....
 100003afc fd7b41a9 ff830091 c0035fd6 ff4300d1  .{A......._..C..
 100003b0c e00700f9 e00740f9 ff430091 c0035fd6  ......@..C...._.
 100003b1c ff8300d1 fd7b01a9 fd430091 e00700f9  .....{...C......
 100003b2c e00740f9 04000094 fd7b41a9 ff830091  ..@......{A.....
 100003b3c c0035fd6 ff4300d1 e00700f9 e00740f9  .._..C........@.
 100003b4c ff430091 c0035fd6 ff4300d1 e00700f9  .C...._..C......
 100003b5c e00740f9 ff430091 c0035fd6 ffc300d1  ..@..C...._.....
 100003b6c fd7b02a9 fd830091 a0831ff8 e10b00f9  .{..............
 100003b7c a8835ff8 e80300f9 e80b40f9 090140f9  .._.......@...@.
 100003b8c 29815ef8 0001098b 0a000094 e00700f9  ).^.............
 100003b9c 01000014 e00340f9 e80740f9 080000f9  ......@...@.....
 100003bac fd7b42a9 ffc30091 c0035fd6 01ffff97  .{B......._.....
 100003bbc ff8300d1 fd7b01a9 fd430091 e00700f9  .....{...C......
 100003bcc e00740f9 04000094 fd7b41a9 ff830091  ..@......{A.....
 100003bdc c0035fd6 ff4300d1 e00700f9 e80740f9  .._..C........@.
 100003bec 001540f9 ff430091 c0035fd6 ff4300d1  ..@..C...._..C..
 100003bfc e00f00b9 e10b00b9 e80f40b9 e90b40b9  ..........@...@.
 100003c0c 0801096b e8179f1a 00010012 ff430091  ...k.........C..
 100003c1c c0035fd6 00008012 c0035fd6 ff4301d1  .._......._..C..
 100003c2c fd7b04a9 fd030191 a0831ff8 a1731f38  .{...........s.8
 100003c3c a0835ff8 a86300d1 e80700f9 4e000094  .._..c......N...
 100003c4c e00740f9 17000094 e00b00f9 01000014  ..@.............
 100003c5c e00b40f9 a173df38 1d000094 e00700b9  ..@..s.8........
 100003c6c 01000014 a06300d1 58000094 e80740b9  .....c..X.....@.
 100003c7c 001d0013 fd7b44a9 ff430191 c0035fd6  .....{D..C...._.
 100003c8c e01300f9 e80301aa e81f00b9 a06300d1  .............c..
 100003c9c 4e000094 01000014 e01340f9 30000094  N.........@.0...
 100003cac ff8300d1 fd7b01a9 fd430091 e00700f9  .....{...C......
 100003cbc e00740f9 010000b0 212840f9 2b000094  ..@.....!(@.+...
 100003ccc fd7b41a9 ff830091 c0035fd6 ff8300d1  .{A......._.....
 100003cdc fd7b01a9 fd430091 e00700f9 e11f0039  .{...C.........9
 100003cec e00740f9 e11fc039 080040f9 081d40f9  ..@....9..@...@.
 100003cfc 00013fd6 001c0013 fd7b41a9 ff830091  ..?......{A.....
 100003d0c c0035fd6 ff8300d1 fd7b01a9 fd430091  .._......{...C..
 100003d1c e00700f9 e10700b9 e00740f9 082040b9  ..........@.. @.
 100003d2c e90740b9 0101092a 2e000094 fd7b41a9  ..@....*.....{A.
 100003d3c ff830091 c0035fd6 ff8300d1 fd7b01a9  ......_......{..
 100003d4c fd430091 e00700f9 e00740f9 31000094  .C........@.1...
 100003d5c fd7b41a9 ff830091 c0035fd6           .{A......._.
Contents of section __TEXT,__stubs:
 100003d68 100000b0 100240f9 00021fd6 100000b0  ......@.........
 100003d78 100640f9 00021fd6 100000b0 100a40f9  ..@...........@.
 100003d88 00021fd6 100000b0 100e40f9 00021fd6  ..........@.....
 100003d98 100000b0 101240f9 00021fd6 100000b0  ......@.........
 100003da8 101640f9 00021fd6 100000b0 101a40f9  ..@...........@.
 100003db8 00021fd6 100000b0 101e40f9 00021fd6  ..........@.....
 100003dc8 100000b0 102240f9 00021fd6 100000b0  ....."@.........
 100003dd8 102e40f9 00021fd6 100000b0 103240f9  ..@..........2@.
 100003de8 00021fd6 100000b0 103640f9 00021fd6  .........6@.....
 100003df8 100000b0 103a40f9 00021fd6 100000b0  .....:@.........
 100003e08 103e40f9 00021fd6 100000b0 104240f9  .>@..........B@.
 100003e18 00021fd6 100000b0 104a40f9 00021fd6  .........J@.....
Contents of section __TEXT,__gcc_except_tab:
 100003e28 ff9b3101 261c08d8 020128a8 02e80201  ..1.&.....(.....
 100003e38 d0024800 00980304 c803009c 03380000  ..H..........8..
 100003e48 d40304e8 0301d803 14000001 00000000  ................
 100003e58 00000000 ff9b0d01 04140830 01010000  ...........0....
 100003e68 00000000 ffff0111 00b40200 00b40208  ................
 100003e78 f00200bc 02840200 00000000 ff9b0d01  ................
 100003e88 04280c50 01010000 00000000 ffff010c  .(.P............
 100003e98 00280000 281c6400 44400000           .(..(.d.D@..
Contents of section __TEXT,__cstring:
 100003ea4 48656c6c 6f20576f 726c6421 00646572  Hello World!.der
 100003eb4 69766564 20636f6e 73747275 63746f72  ived constructor
 100003ec4 2063616c 6c656400 62617365 20636f6e   called.base con
 100003ed4 73747275 63746f72 2063616c 6c656400  structor called.
 100003ee4 49276d20 42415345 0049276d 20444552  I'm BASE.I'm DER
 100003ef4 49564544 00                          IVED.
Contents of section __TEXT,__const:
 100003ef9 37646572 69766564 00346261 736500    7derived.4base.
Contents of section __TEXT,__unwind_info:
 100003f08 01000000 1c000000 03000000 28000000  ............(...
 100003f18 01000000 2c000000 02000000 00000004  ....,...........
 100003f28 00100002 00000054 88400000 8c2f0000  .......T.@.../..
 100003f38 78000000 50000000 683d0000 00000000  x...P...h=......
 100003f48 78000000 00000000 00000000 00000000  x...............
 100003f58 40320000 283e0000 2c340000 5c3e0000  @2..(>..,4..\>..
 100003f68 7c340000 6c3e0000 683b0000 843e0000  |4..l>..h;...>..
 100003f78 283c0000 943e0000 03000000 0c001b00  (<...>..........
 100003f88 78000200 00000000 b4020002 a0040002  x...............
 100003f98 d4040001 f0040002 30070000 64070001  ........0...d...
 100003fa8 7c070000 e0070001 04080000 40080001  |...........@...
 100003fb8 58080000 f8080003 24090000 e8090001  X.......$.......
 100003fc8 fc090000 540a0001 7c0a0000 7c0b0001  ....T...|...|...
 100003fd8 900b0000 b40b0001 dc0b0002 300c0000  ............0...
 100003fe8 540c0001 940c0004 9c0c0002 200d0000  T........... ...
 100003ff8 00200002 00000002                    . ......
Contents of section __DATA_CONST,__got:
 100004000 00000000 00001080 01000000 00001080  ................
 100004010 02000000 00001080 03000000 00001080  ................
 100004020 04000000 00001080 05000000 00001080  ................
 100004030 06000000 00001080 07000000 00001080  ................
 100004040 08000000 00001080 09000000 00001080  ................
 100004050 0a000000 00001080 0b000000 00001080  ................
 100004060 0c000000 00001080 0d000000 00001080  ................
 100004070 0e000000 00001080 0f000000 00001080  ................
 100004080 10000000 00001080 11000000 00001080  ................
 100004090 12000000 00002080                    ...... .
Contents of section __DATA_CONST,__const:
 100004098 00000000 00000000 c0400000 00001000  .........@......
 1000040a8 c8310000 00001000 13000010 00001080  .1..............
 1000040b8 023f0000 00081000 14000010 00001080  .?..............
 1000040c8 f93e0000 00081000 b0400000 00002000  .>.......@.... .
 1000040d8 00000000 00000000 b0400000 00001000  .........@......
 1000040e8 04320000 00000000                    .2......

Disassembly of section __TEXT,__text:

0000000100002f8c <_main>:
100002f8c: d10143ff    	sub	sp, sp, #0x50
100002f90: a9047bfd    	stp	x29, x30, [sp, #0x40]
100002f94: 910103fd    	add	x29, sp, #0x40
100002f98: 52800008    	mov	w8, #0x0                ; =0
100002f9c: b90017e8    	str	w8, [sp, #0x14]
100002fa0: b81fc3bf    	stur	wzr, [x29, #-0x4]
100002fa4: b81f83a0    	stur	w0, [x29, #-0x8]
100002fa8: f81f03a1    	stur	x1, [x29, #-0x10]
100002fac: d10063a0    	sub	x0, x29, #0x18
100002fb0: f90007e0    	str	x0, [sp, #0x8]
100002fb4: 94000019    	bl	0x100003018 <__ZN7derivedC1Ev>
100002fb8: f94007e8    	ldr	x8, [sp, #0x8]
100002fbc: aa0803e9    	mov	x9, x8
100002fc0: f90013e9    	str	x9, [sp, #0x20]
100002fc4: f9000fe8    	str	x8, [sp, #0x18]
100002fc8: f94013e0    	ldr	x0, [sp, #0x20]
100002fcc: f9400008    	ldr	x8, [x0]
100002fd0: f9400108    	ldr	x8, [x8]
100002fd4: d63f0100    	blr	x8
100002fd8: f9400fe0    	ldr	x0, [sp, #0x18]
100002fdc: f9400008    	ldr	x8, [x0]
100002fe0: f9400108    	ldr	x8, [x8]
100002fe4: d63f0100    	blr	x8
100002fe8: d0000000    	adrp	x0, 0x100004000 <_strlen+0x100004000>
100002fec: f9402400    	ldr	x0, [x0, #0x48]
100002ff0: b0000001    	adrp	x1, 0x100003000 <_main+0x74>
100002ff4: 913a9021    	add	x1, x1, #0xea4
100002ff8: 94000013    	bl	0x100003044 <__ZNSt3__1lsB8ne180100INS_11char_traitsIcEEEERNS_13basic_ostreamIcT_EES6_PKc>
100002ffc: b0000001    	adrp	x1, 0x100003000 <_main+0x74>
100003000: 9102e021    	add	x1, x1, #0xb8
100003004: 94000022    	bl	0x10000308c <__ZNSt3__113basic_ostreamIcNS_11char_traitsIcEEElsB8ne180100EPFRS3_S4_E>
100003008: b94017e0    	ldr	w0, [sp, #0x14]
10000300c: a9447bfd    	ldp	x29, x30, [sp, #0x40]
100003010: 910143ff    	add	sp, sp, #0x50
100003014: d65f03c0    	ret

0000000100003018 <__ZN7derivedC1Ev>:
100003018: d10083ff    	sub	sp, sp, #0x20
10000301c: a9017bfd    	stp	x29, x30, [sp, #0x10]
100003020: 910043fd    	add	x29, sp, #0x10
100003024: f90007e0    	str	x0, [sp, #0x8]
100003028: f94007e0    	ldr	x0, [sp, #0x8]
10000302c: f90003e0    	str	x0, [sp]
100003030: 94000038    	bl	0x100003110 <__ZN7derivedC2Ev>
100003034: f94003e0    	ldr	x0, [sp]
100003038: a9417bfd    	ldp	x29, x30, [sp, #0x10]
10000303c: 910083ff    	add	sp, sp, #0x20
100003040: d65f03c0    	ret

0000000100003044 <__ZNSt3__1lsB8ne180100INS_11char_traitsIcEEEERNS_13basic_ostreamIcT_EES6_PKc>:
100003044: d100c3ff    	sub	sp, sp, #0x30
100003048: a9027bfd    	stp	x29, x30, [sp, #0x20]
10000304c: 910083fd    	add	x29, sp, #0x20
100003050: f81f83a0    	stur	x0, [x29, #-0x8]
100003054: f9000be1    	str	x1, [sp, #0x10]
100003058: f85f83a8    	ldur	x8, [x29, #-0x8]
10000305c: f90007e8    	str	x8, [sp, #0x8]
100003060: f9400be8    	ldr	x8, [sp, #0x10]
100003064: f90003e8    	str	x8, [sp]
100003068: f9400be0    	ldr	x0, [sp, #0x10]
10000306c: 940000f0    	bl	0x10000342c <__ZNSt3__111char_traitsIcE6lengthB8ne180100EPKc>
100003070: f94003e1    	ldr	x1, [sp]
100003074: aa0003e2    	mov	x2, x0
100003078: f94007e0    	ldr	x0, [sp, #0x8]
10000307c: 94000071    	bl	0x100003240 <__ZNSt3__124__put_character_sequenceB8ne180100IcNS_11char_traitsIcEEEERNS_13basic_ostreamIT_T0_EES7_PKS4_m>
100003080: a9427bfd    	ldp	x29, x30, [sp, #0x20]
100003084: 9100c3ff    	add	sp, sp, #0x30
100003088: d65f03c0    	ret

000000010000308c <__ZNSt3__113basic_ostreamIcNS_11char_traitsIcEEElsB8ne180100EPFRS3_S4_E>:
10000308c: d10083ff    	sub	sp, sp, #0x20
100003090: a9017bfd    	stp	x29, x30, [sp, #0x10]
100003094: 910043fd    	add	x29, sp, #0x10
100003098: f90007e0    	str	x0, [sp, #0x8]
10000309c: f90003e1    	str	x1, [sp]
1000030a0: f94007e0    	ldr	x0, [sp, #0x8]
1000030a4: f94003e8    	ldr	x8, [sp]
1000030a8: d63f0100    	blr	x8
1000030ac: a9417bfd    	ldp	x29, x30, [sp, #0x10]
1000030b0: 910083ff    	add	sp, sp, #0x20
1000030b4: d65f03c0    	ret

00000001000030b8 <__ZNSt3__14endlB8ne180100IcNS_11char_traitsIcEEEERNS_13basic_ostreamIT_T0_EES7_>:
1000030b8: d10083ff    	sub	sp, sp, #0x20
1000030bc: a9017bfd    	stp	x29, x30, [sp, #0x10]
1000030c0: 910043fd    	add	x29, sp, #0x10
1000030c4: f90007e0    	str	x0, [sp, #0x8]
1000030c8: f94007e8    	ldr	x8, [sp, #0x8]
1000030cc: f90003e8    	str	x8, [sp]
1000030d0: f94007e8    	ldr	x8, [sp, #0x8]
1000030d4: f9400109    	ldr	x9, [x8]
1000030d8: f85e8129    	ldur	x9, [x9, #-0x18]
1000030dc: 8b090100    	add	x0, x8, x9
1000030e0: 52800141    	mov	w1, #0xa                ; =10
1000030e4: 940002d1    	bl	0x100003c28 <__ZNKSt3__19basic_iosIcNS_11char_traitsIcEEE5widenB8ne180100Ec>
1000030e8: aa0003e8    	mov	x8, x0
1000030ec: f94003e0    	ldr	x0, [sp]
1000030f0: 13001d01    	sxtb	w1, w8
1000030f4: 9400032c    	bl	0x100003da4 <_strlen+0x100003da4>
1000030f8: f94007e0    	ldr	x0, [sp, #0x8]
1000030fc: 9400032d    	bl	0x100003db0 <_strlen+0x100003db0>
100003100: f94007e0    	ldr	x0, [sp, #0x8]
100003104: a9417bfd    	ldp	x29, x30, [sp, #0x10]
100003108: 910083ff    	add	sp, sp, #0x20
10000310c: d65f03c0    	ret

0000000100003110 <__ZN7derivedC2Ev>:
100003110: d10083ff    	sub	sp, sp, #0x20
100003114: a9017bfd    	stp	x29, x30, [sp, #0x10]
100003118: 910043fd    	add	x29, sp, #0x10
10000311c: f90007e0    	str	x0, [sp, #0x8]
100003120: f94007e0    	ldr	x0, [sp, #0x8]
100003124: f90003e0    	str	x0, [sp]
100003128: 94000012    	bl	0x100003170 <__ZN4baseC2Ev>
10000312c: f94003e9    	ldr	x9, [sp]
100003130: b0000008    	adrp	x8, 0x100004000 <_strlen+0x100004000>
100003134: 91026108    	add	x8, x8, #0x98
100003138: 91004108    	add	x8, x8, #0x10
10000313c: f9000128    	str	x8, [x9]
100003140: b0000000    	adrp	x0, 0x100004000 <_strlen+0x100004000>
100003144: f9402400    	ldr	x0, [x0, #0x48]
100003148: 90000001    	adrp	x1, 0x100003000 <_main+0x74>
10000314c: 913ac421    	add	x1, x1, #0xeb1
100003150: 97ffffbd    	bl	0x100003044 <__ZNSt3__1lsB8ne180100INS_11char_traitsIcEEEERNS_13basic_ostreamIcT_EES6_PKc>
100003154: 90000001    	adrp	x1, 0x100003000 <_main+0x74>
100003158: 9102e021    	add	x1, x1, #0xb8
10000315c: 97ffffcc    	bl	0x10000308c <__ZNSt3__113basic_ostreamIcNS_11char_traitsIcEEElsB8ne180100EPFRS3_S4_E>
100003160: f94003e0    	ldr	x0, [sp]
100003164: a9417bfd    	ldp	x29, x30, [sp, #0x10]
100003168: 910083ff    	add	sp, sp, #0x20
10000316c: d65f03c0    	ret

0000000100003170 <__ZN4baseC2Ev>:
100003170: d10083ff    	sub	sp, sp, #0x20
100003174: a9017bfd    	stp	x29, x30, [sp, #0x10]
100003178: 910043fd    	add	x29, sp, #0x10
10000317c: f90007e0    	str	x0, [sp, #0x8]
100003180: f94007e9    	ldr	x9, [sp, #0x8]
100003184: f90003e9    	str	x9, [sp]
100003188: b0000008    	adrp	x8, 0x100004000 <_strlen+0x100004000>
10000318c: 91036108    	add	x8, x8, #0xd8
100003190: 91004108    	add	x8, x8, #0x10
100003194: f9000128    	str	x8, [x9]
100003198: b0000000    	adrp	x0, 0x100004000 <_strlen+0x100004000>
10000319c: f9402400    	ldr	x0, [x0, #0x48]
1000031a0: 90000001    	adrp	x1, 0x100003000 <_main+0x74>
1000031a4: 913b3021    	add	x1, x1, #0xecc
1000031a8: 97ffffa7    	bl	0x100003044 <__ZNSt3__1lsB8ne180100INS_11char_traitsIcEEEERNS_13basic_ostreamIcT_EES6_PKc>
1000031ac: 90000001    	adrp	x1, 0x100003000 <_main+0x74>
1000031b0: 9102e021    	add	x1, x1, #0xb8
1000031b4: 97ffffb6    	bl	0x10000308c <__ZNSt3__113basic_ostreamIcNS_11char_traitsIcEEElsB8ne180100EPFRS3_S4_E>
1000031b8: f94003e0    	ldr	x0, [sp]
1000031bc: a9417bfd    	ldp	x29, x30, [sp, #0x10]
1000031c0: 910083ff    	add	sp, sp, #0x20
1000031c4: d65f03c0    	ret

00000001000031c8 <__ZN7derived4echoEv>:
1000031c8: d10083ff    	sub	sp, sp, #0x20
1000031cc: a9017bfd    	stp	x29, x30, [sp, #0x10]
1000031d0: 910043fd    	add	x29, sp, #0x10
1000031d4: f90007e0    	str	x0, [sp, #0x8]
1000031d8: b0000000    	adrp	x0, 0x100004000 <_strlen+0x100004000>
1000031dc: f9402400    	ldr	x0, [x0, #0x48]
1000031e0: 90000001    	adrp	x1, 0x100003000 <_main+0x74>
1000031e4: 913bb421    	add	x1, x1, #0xeed
1000031e8: 97ffff97    	bl	0x100003044 <__ZNSt3__1lsB8ne180100INS_11char_traitsIcEEEERNS_13basic_ostreamIcT_EES6_PKc>
1000031ec: 90000001    	adrp	x1, 0x100003000 <_main+0x74>
1000031f0: 9102e021    	add	x1, x1, #0xb8
1000031f4: 97ffffa6    	bl	0x10000308c <__ZNSt3__113basic_ostreamIcNS_11char_traitsIcEEElsB8ne180100EPFRS3_S4_E>
1000031f8: a9417bfd    	ldp	x29, x30, [sp, #0x10]
1000031fc: 910083ff    	add	sp, sp, #0x20
100003200: d65f03c0    	ret

0000000100003204 <__ZN4base4echoEv>:
100003204: d10083ff    	sub	sp, sp, #0x20
100003208: a9017bfd    	stp	x29, x30, [sp, #0x10]
10000320c: 910043fd    	add	x29, sp, #0x10
100003210: f90007e0    	str	x0, [sp, #0x8]
100003214: b0000000    	adrp	x0, 0x100004000 <_strlen+0x100004000>
100003218: f9402400    	ldr	x0, [x0, #0x48]
10000321c: 90000001    	adrp	x1, 0x100003000 <_main+0x74>
100003220: 913b9021    	add	x1, x1, #0xee4
100003224: 97ffff88    	bl	0x100003044 <__ZNSt3__1lsB8ne180100INS_11char_traitsIcEEEERNS_13basic_ostreamIcT_EES6_PKc>
100003228: 90000001    	adrp	x1, 0x100003000 <_main+0x74>
10000322c: 9102e021    	add	x1, x1, #0xb8
100003230: 97ffff97    	bl	0x10000308c <__ZNSt3__113basic_ostreamIcNS_11char_traitsIcEEElsB8ne180100EPFRS3_S4_E>
100003234: a9417bfd    	ldp	x29, x30, [sp, #0x10]
100003238: 910083ff    	add	sp, sp, #0x20
10000323c: d65f03c0    	ret

0000000100003240 <__ZNSt3__124__put_character_sequenceB8ne180100IcNS_11char_traitsIcEEEERNS_13basic_ostreamIT_T0_EES7_PKS4_m>:
100003240: d10283ff    	sub	sp, sp, #0xa0
100003244: a9097bfd    	stp	x29, x30, [sp, #0x90]
100003248: 910243fd    	add	x29, sp, #0x90
10000324c: f81f83a0    	stur	x0, [x29, #-0x8]
100003250: f81f03a1    	stur	x1, [x29, #-0x10]
100003254: f81e83a2    	stur	x2, [x29, #-0x18]
100003258: f85f83a1    	ldur	x1, [x29, #-0x8]
10000325c: d100a3a0    	sub	x0, x29, #0x28
100003260: 940002d7    	bl	0x100003dbc <_strlen+0x100003dbc>
100003264: 14000001    	b	0x100003268 <__ZNSt3__124__put_character_sequenceB8ne180100IcNS_11char_traitsIcEEEERNS_13basic_ostreamIT_T0_EES7_PKS4_m+0x28>
100003268: d100a3a0    	sub	x0, x29, #0x28
10000326c: 9400007d    	bl	0x100003460 <__ZNKSt3__113basic_ostreamIcNS_11char_traitsIcEEE6sentrycvbB8ne180100Ev>
100003270: b90047e0    	str	w0, [sp, #0x44]
100003274: 14000001    	b	0x100003278 <__ZNSt3__124__put_character_sequenceB8ne180100IcNS_11char_traitsIcEEEERNS_13basic_ostreamIT_T0_EES7_PKS4_m+0x38>
100003278: b94047e8    	ldr	w8, [sp, #0x44]
10000327c: 36000c08    	tbz	w8, #0x0, 0x1000033fc <__ZNSt3__124__put_character_sequenceB8ne180100IcNS_11char_traitsIcEEEERNS_13basic_ostreamIT_T0_EES7_PKS4_m+0x1bc>
100003280: 14000001    	b	0x100003284 <__ZNSt3__124__put_character_sequenceB8ne180100IcNS_11char_traitsIcEEEERNS_13basic_ostreamIT_T0_EES7_PKS4_m+0x44>
100003284: f85f83a1    	ldur	x1, [x29, #-0x8]
100003288: 910123e0    	add	x0, sp, #0x48
10000328c: 9400010c    	bl	0x1000036bc <__ZNSt3__119ostreambuf_iteratorIcNS_11char_traitsIcEEEC1B8ne180100ERNS_13basic_ostreamIcS2_EE>
100003290: f85f03a8    	ldur	x8, [x29, #-0x10]
100003294: f9001fe8    	str	x8, [sp, #0x38]
100003298: f85f83a8    	ldur	x8, [x29, #-0x8]
10000329c: f9400109    	ldr	x9, [x8]
1000032a0: f85e8129    	ldur	x9, [x9, #-0x18]
1000032a4: 8b090100    	add	x0, x8, x9
1000032a8: 94000112    	bl	0x1000036f0 <__ZNKSt3__18ios_base5flagsB8ne180100Ev>
1000032ac: b90043e0    	str	w0, [sp, #0x40]
1000032b0: 14000001    	b	0x1000032b4 <__ZNSt3__124__put_character_sequenceB8ne180100IcNS_11char_traitsIcEEEERNS_13basic_ostreamIT_T0_EES7_PKS4_m+0x74>
1000032b4: b94043e8    	ldr	w8, [sp, #0x40]
1000032b8: 52801609    	mov	w9, #0xb0               ; =176
1000032bc: 0a090108    	and	w8, w8, w9
1000032c0: 71008108    	subs	w8, w8, #0x20
1000032c4: 1a9f07e8    	cset	w8, ne
1000032c8: 370000e8    	tbnz	w8, #0x0, 0x1000032e4 <__ZNSt3__124__put_character_sequenceB8ne180100IcNS_11char_traitsIcEEEERNS_13basic_ostreamIT_T0_EES7_PKS4_m+0xa4>
1000032cc: 14000001    	b	0x1000032d0 <__ZNSt3__124__put_character_sequenceB8ne180100IcNS_11char_traitsIcEEEERNS_13basic_ostreamIT_T0_EES7_PKS4_m+0x90>
1000032d0: f85f03a8    	ldur	x8, [x29, #-0x10]
1000032d4: f85e83a9    	ldur	x9, [x29, #-0x18]
1000032d8: 8b090108    	add	x8, x8, x9
1000032dc: f9001be8    	str	x8, [sp, #0x30]
1000032e0: 14000004    	b	0x1000032f0 <__ZNSt3__124__put_character_sequenceB8ne180100IcNS_11char_traitsIcEEEERNS_13basic_ostreamIT_T0_EES7_PKS4_m+0xb0>
1000032e4: f85f03a8    	ldur	x8, [x29, #-0x10]
1000032e8: f9001be8    	str	x8, [sp, #0x30]
1000032ec: 14000001    	b	0x1000032f0 <__ZNSt3__124__put_character_sequenceB8ne180100IcNS_11char_traitsIcEEEERNS_13basic_ostreamIT_T0_EES7_PKS4_m+0xb0>
1000032f0: f9401be8    	ldr	x8, [sp, #0x30]
1000032f4: f9000be8    	str	x8, [sp, #0x10]
1000032f8: f85f03a8    	ldur	x8, [x29, #-0x10]
1000032fc: f85e83a9    	ldur	x9, [x29, #-0x18]
100003300: 8b090108    	add	x8, x8, x9
100003304: f9000fe8    	str	x8, [sp, #0x18]
100003308: f85f83a8    	ldur	x8, [x29, #-0x8]
10000330c: f9400109    	ldr	x9, [x8]
100003310: f85e8129    	ldur	x9, [x9, #-0x18]
100003314: 8b090108    	add	x8, x8, x9
100003318: f90013e8    	str	x8, [sp, #0x20]
10000331c: f85f83a8    	ldur	x8, [x29, #-0x8]
100003320: f9400109    	ldr	x9, [x8]
100003324: f85e8129    	ldur	x9, [x9, #-0x18]
100003328: 8b090100    	add	x0, x8, x9
10000332c: 940000f7    	bl	0x100003708 <__ZNKSt3__19basic_iosIcNS_11char_traitsIcEEE4fillB8ne180100Ev>
100003330: b9002fe0    	str	w0, [sp, #0x2c]
100003334: 14000001    	b	0x100003338 <__ZNSt3__124__put_character_sequenceB8ne180100IcNS_11char_traitsIcEEEERNS_13basic_ostreamIT_T0_EES7_PKS4_m+0xf8>
100003338: b9402fe8    	ldr	w8, [sp, #0x2c]
10000333c: f94013e4    	ldr	x4, [sp, #0x20]
100003340: f9400fe3    	ldr	x3, [sp, #0x18]
100003344: f9400be2    	ldr	x2, [sp, #0x10]
100003348: f9401fe1    	ldr	x1, [sp, #0x38]
10000334c: f94027e0    	ldr	x0, [sp, #0x48]
100003350: 13001d05    	sxtb	w5, w8
100003354: 9400004a    	bl	0x10000347c <__ZNSt3__116__pad_and_outputB8ne180100IcNS_11char_traitsIcEEEENS_19ostreambuf_iteratorIT_T0_EES6_PKS4_S8_S8_RNS_8ios_baseES4_>
100003358: f90007e0    	str	x0, [sp, #0x8]
10000335c: 14000001    	b	0x100003360 <__ZNSt3__124__put_character_sequenceB8ne180100IcNS_11char_traitsIcEEEERNS_13basic_ostreamIT_T0_EES7_PKS4_m+0x120>
100003360: f94007e8    	ldr	x8, [sp, #0x8]
100003364: d10103a0    	sub	x0, x29, #0x40
100003368: f81c03a8    	stur	x8, [x29, #-0x40]
10000336c: 94000100    	bl	0x10000376c <__ZNKSt3__119ostreambuf_iteratorIcNS_11char_traitsIcEEE6failedB8ne180100Ev>
100003370: 36000440    	tbz	w0, #0x0, 0x1000033f8 <__ZNSt3__124__put_character_sequenceB8ne180100IcNS_11char_traitsIcEEEERNS_13basic_ostreamIT_T0_EES7_PKS4_m+0x1b8>
100003374: 14000001    	b	0x100003378 <__ZNSt3__124__put_character_sequenceB8ne180100IcNS_11char_traitsIcEEEERNS_13basic_ostreamIT_T0_EES7_PKS4_m+0x138>
100003378: f85f83a8    	ldur	x8, [x29, #-0x8]
10000337c: f9400109    	ldr	x9, [x8]
100003380: f85e8129    	ldur	x9, [x9, #-0x18]
100003384: 8b090100    	add	x0, x8, x9
100003388: 528000a1    	mov	w1, #0x5                ; =5
10000338c: 94000101    	bl	0x100003790 <__ZNSt3__19basic_iosIcNS_11char_traitsIcEEE8setstateB8ne180100Ej>
100003390: 14000001    	b	0x100003394 <__ZNSt3__124__put_character_sequenceB8ne180100IcNS_11char_traitsIcEEEERNS_13basic_ostreamIT_T0_EES7_PKS4_m+0x154>
100003394: 14000019    	b	0x1000033f8 <__ZNSt3__124__put_character_sequenceB8ne180100IcNS_11char_traitsIcEEEERNS_13basic_ostreamIT_T0_EES7_PKS4_m+0x1b8>
100003398: f81d03a0    	stur	x0, [x29, #-0x30]
10000339c: aa0103e8    	mov	x8, x1
1000033a0: b81cc3a8    	stur	w8, [x29, #-0x34]
1000033a4: 14000007    	b	0x1000033c0 <__ZNSt3__124__put_character_sequenceB8ne180100IcNS_11char_traitsIcEEEERNS_13basic_ostreamIT_T0_EES7_PKS4_m+0x180>
1000033a8: f81d03a0    	stur	x0, [x29, #-0x30]
1000033ac: aa0103e8    	mov	x8, x1
1000033b0: b81cc3a8    	stur	w8, [x29, #-0x34]
1000033b4: d100a3a0    	sub	x0, x29, #0x28
1000033b8: 94000284    	bl	0x100003dc8 <_strlen+0x100003dc8>
1000033bc: 14000001    	b	0x1000033c0 <__ZNSt3__124__put_character_sequenceB8ne180100IcNS_11char_traitsIcEEEERNS_13basic_ostreamIT_T0_EES7_PKS4_m+0x180>
1000033c0: f85d03a0    	ldur	x0, [x29, #-0x30]
1000033c4: 94000290    	bl	0x100003e04 <_strlen+0x100003e04>
1000033c8: f85f83a8    	ldur	x8, [x29, #-0x8]
1000033cc: f9400109    	ldr	x9, [x8]
1000033d0: f85e8129    	ldur	x9, [x9, #-0x18]
1000033d4: 8b090100    	add	x0, x8, x9
1000033d8: 94000282    	bl	0x100003de0 <_strlen+0x100003de0>
1000033dc: 14000001    	b	0x1000033e0 <__ZNSt3__124__put_character_sequenceB8ne180100IcNS_11char_traitsIcEEEERNS_13basic_ostreamIT_T0_EES7_PKS4_m+0x1a0>
1000033e0: 9400028c    	bl	0x100003e10 <_strlen+0x100003e10>
1000033e4: 14000001    	b	0x1000033e8 <__ZNSt3__124__put_character_sequenceB8ne180100IcNS_11char_traitsIcEEEERNS_13basic_ostreamIT_T0_EES7_PKS4_m+0x1a8>
1000033e8: f85f83a0    	ldur	x0, [x29, #-0x8]
1000033ec: a9497bfd    	ldp	x29, x30, [sp, #0x90]
1000033f0: 910283ff    	add	sp, sp, #0xa0
1000033f4: d65f03c0    	ret
1000033f8: 14000001    	b	0x1000033fc <__ZNSt3__124__put_character_sequenceB8ne180100IcNS_11char_traitsIcEEEERNS_13basic_ostreamIT_T0_EES7_PKS4_m+0x1bc>
1000033fc: d100a3a0    	sub	x0, x29, #0x28
100003400: 94000272    	bl	0x100003dc8 <_strlen+0x100003dc8>
100003404: 17fffff9    	b	0x1000033e8 <__ZNSt3__124__put_character_sequenceB8ne180100IcNS_11char_traitsIcEEEERNS_13basic_ostreamIT_T0_EES7_PKS4_m+0x1a8>
100003408: f81d03a0    	stur	x0, [x29, #-0x30]
10000340c: aa0103e8    	mov	x8, x1
100003410: b81cc3a8    	stur	w8, [x29, #-0x34]
100003414: 9400027f    	bl	0x100003e10 <_strlen+0x100003e10>
100003418: 14000001    	b	0x10000341c <__ZNSt3__124__put_character_sequenceB8ne180100IcNS_11char_traitsIcEEEERNS_13basic_ostreamIT_T0_EES7_PKS4_m+0x1dc>
10000341c: 14000001    	b	0x100003420 <__ZNSt3__124__put_character_sequenceB8ne180100IcNS_11char_traitsIcEEEERNS_13basic_ostreamIT_T0_EES7_PKS4_m+0x1e0>
100003420: f85d03a0    	ldur	x0, [x29, #-0x30]
100003424: 94000251    	bl	0x100003d68 <_strlen+0x100003d68>
100003428: 940000e5    	bl	0x1000037bc <___clang_call_terminate>

000000010000342c <__ZNSt3__111char_traitsIcE6lengthB8ne180100EPKc>:
10000342c: d10083ff    	sub	sp, sp, #0x20
100003430: a9017bfd    	stp	x29, x30, [sp, #0x10]
100003434: 910043fd    	add	x29, sp, #0x10
100003438: f90007e0    	str	x0, [sp, #0x8]
10000343c: f94007e0    	ldr	x0, [sp, #0x8]
100003440: 94000241    	bl	0x100003d44 <__ZNSt3__118__constexpr_strlenB8ne180100EPKc>
100003444: f90003e0    	str	x0, [sp]
100003448: 14000001    	b	0x10000344c <__ZNSt3__111char_traitsIcE6lengthB8ne180100EPKc+0x20>
10000344c: f94003e0    	ldr	x0, [sp]
100003450: a9417bfd    	ldp	x29, x30, [sp, #0x10]
100003454: 910083ff    	add	sp, sp, #0x20
100003458: d65f03c0    	ret
10000345c: 940000d8    	bl	0x1000037bc <___clang_call_terminate>

0000000100003460 <__ZNKSt3__113basic_ostreamIcNS_11char_traitsIcEEE6sentrycvbB8ne180100Ev>:
100003460: d10043ff    	sub	sp, sp, #0x10
100003464: f90007e0    	str	x0, [sp, #0x8]
100003468: f94007e8    	ldr	x8, [sp, #0x8]
10000346c: 39400108    	ldrb	w8, [x8]
100003470: 12000100    	and	w0, w8, #0x1
100003474: 910043ff    	add	sp, sp, #0x10
100003478: d65f03c0    	ret

000000010000347c <__ZNSt3__116__pad_and_outputB8ne180100IcNS_11char_traitsIcEEEENS_19ostreambuf_iteratorIT_T0_EES6_PKS4_S8_S8_RNS_8ios_baseES4_>:
10000347c: d10283ff    	sub	sp, sp, #0xa0
100003480: a9097bfd    	stp	x29, x30, [sp, #0x90]
100003484: 910243fd    	add	x29, sp, #0x90
100003488: f81f03a0    	stur	x0, [x29, #-0x10]
10000348c: f81e83a1    	stur	x1, [x29, #-0x18]
100003490: f81e03a2    	stur	x2, [x29, #-0x20]
100003494: f81d83a3    	stur	x3, [x29, #-0x28]
100003498: f81d03a4    	stur	x4, [x29, #-0x30]
10000349c: 381cf3a5    	sturb	w5, [x29, #-0x31]
1000034a0: f85f03a8    	ldur	x8, [x29, #-0x10]
1000034a4: f1000108    	subs	x8, x8, #0x0
1000034a8: 1a9f07e8    	cset	w8, ne
1000034ac: 370000a8    	tbnz	w8, #0x0, 0x1000034c0 <__ZNSt3__116__pad_and_outputB8ne180100IcNS_11char_traitsIcEEEENS_19ostreambuf_iteratorIT_T0_EES6_PKS4_S8_S8_RNS_8ios_baseES4_+0x44>
1000034b0: 14000001    	b	0x1000034b4 <__ZNSt3__116__pad_and_outputB8ne180100IcNS_11char_traitsIcEEEENS_19ostreambuf_iteratorIT_T0_EES6_PKS4_S8_S8_RNS_8ios_baseES4_+0x38>
1000034b4: f85f03a8    	ldur	x8, [x29, #-0x10]
1000034b8: f81f83a8    	stur	x8, [x29, #-0x8]
1000034bc: 1400007a    	b	0x1000036a4 <__ZNSt3__116__pad_and_outputB8ne180100IcNS_11char_traitsIcEEEENS_19ostreambuf_iteratorIT_T0_EES6_PKS4_S8_S8_RNS_8ios_baseES4_+0x228>
1000034c0: f85d83a8    	ldur	x8, [x29, #-0x28]
1000034c4: f85e83a9    	ldur	x9, [x29, #-0x18]
1000034c8: eb090108    	subs	x8, x8, x9
1000034cc: f81c03a8    	stur	x8, [x29, #-0x40]
1000034d0: f85d03a0    	ldur	x0, [x29, #-0x30]
1000034d4: 940000be    	bl	0x1000037cc <__ZNKSt3__18ios_base5widthB8ne180100Ev>
1000034d8: f90027e0    	str	x0, [sp, #0x48]
1000034dc: f94027e8    	ldr	x8, [sp, #0x48]
1000034e0: f85c03a9    	ldur	x9, [x29, #-0x40]
1000034e4: eb090108    	subs	x8, x8, x9
1000034e8: 1a9fc7e8    	cset	w8, le
1000034ec: 370000e8    	tbnz	w8, #0x0, 0x100003508 <__ZNSt3__116__pad_and_outputB8ne180100IcNS_11char_traitsIcEEEENS_19ostreambuf_iteratorIT_T0_EES6_PKS4_S8_S8_RNS_8ios_baseES4_+0x8c>
1000034f0: 14000001    	b	0x1000034f4 <__ZNSt3__116__pad_and_outputB8ne180100IcNS_11char_traitsIcEEEENS_19ostreambuf_iteratorIT_T0_EES6_PKS4_S8_S8_RNS_8ios_baseES4_+0x78>
1000034f4: f85c03a9    	ldur	x9, [x29, #-0x40]
1000034f8: f94027e8    	ldr	x8, [sp, #0x48]
1000034fc: eb090108    	subs	x8, x8, x9
100003500: f90027e8    	str	x8, [sp, #0x48]
100003504: 14000003    	b	0x100003510 <__ZNSt3__116__pad_and_outputB8ne180100IcNS_11char_traitsIcEEEENS_19ostreambuf_iteratorIT_T0_EES6_PKS4_S8_S8_RNS_8ios_baseES4_+0x94>
100003508: f90027ff    	str	xzr, [sp, #0x48]
10000350c: 14000001    	b	0x100003510 <__ZNSt3__116__pad_and_outputB8ne180100IcNS_11char_traitsIcEEEENS_19ostreambuf_iteratorIT_T0_EES6_PKS4_S8_S8_RNS_8ios_baseES4_+0x94>
100003510: f85e03a8    	ldur	x8, [x29, #-0x20]
100003514: f85e83a9    	ldur	x9, [x29, #-0x18]
100003518: eb090108    	subs	x8, x8, x9
10000351c: f90023e8    	str	x8, [sp, #0x40]
100003520: f94023e8    	ldr	x8, [sp, #0x40]
100003524: f1000108    	subs	x8, x8, #0x0
100003528: 1a9fc7e8    	cset	w8, le
10000352c: 37000208    	tbnz	w8, #0x0, 0x10000356c <__ZNSt3__116__pad_and_outputB8ne180100IcNS_11char_traitsIcEEEENS_19ostreambuf_iteratorIT_T0_EES6_PKS4_S8_S8_RNS_8ios_baseES4_+0xf0>
100003530: 14000001    	b	0x100003534 <__ZNSt3__116__pad_and_outputB8ne180100IcNS_11char_traitsIcEEEENS_19ostreambuf_iteratorIT_T0_EES6_PKS4_S8_S8_RNS_8ios_baseES4_+0xb8>
100003534: f85f03a0    	ldur	x0, [x29, #-0x10]
100003538: f85e83a1    	ldur	x1, [x29, #-0x18]
10000353c: f94023e2    	ldr	x2, [sp, #0x40]
100003540: 940000a9    	bl	0x1000037e4 <__ZNSt3__115basic_streambufIcNS_11char_traitsIcEEE5sputnB8ne180100EPKcl>
100003544: f94023e8    	ldr	x8, [sp, #0x40]
100003548: eb080008    	subs	x8, x0, x8
10000354c: 1a9f17e8    	cset	w8, eq
100003550: 370000c8    	tbnz	w8, #0x0, 0x100003568 <__ZNSt3__116__pad_and_outputB8ne180100IcNS_11char_traitsIcEEEENS_19ostreambuf_iteratorIT_T0_EES6_PKS4_S8_S8_RNS_8ios_baseES4_+0xec>
100003554: 14000001    	b	0x100003558 <__ZNSt3__116__pad_and_outputB8ne180100IcNS_11char_traitsIcEEEENS_19ostreambuf_iteratorIT_T0_EES6_PKS4_S8_S8_RNS_8ios_baseES4_+0xdc>
100003558: f81f03bf    	stur	xzr, [x29, #-0x10]
10000355c: f85f03a8    	ldur	x8, [x29, #-0x10]
100003560: f81f83a8    	stur	x8, [x29, #-0x8]
100003564: 14000050    	b	0x1000036a4 <__ZNSt3__116__pad_and_outputB8ne180100IcNS_11char_traitsIcEEEENS_19ostreambuf_iteratorIT_T0_EES6_PKS4_S8_S8_RNS_8ios_baseES4_+0x228>
100003568: 14000001    	b	0x10000356c <__ZNSt3__116__pad_and_outputB8ne180100IcNS_11char_traitsIcEEEENS_19ostreambuf_iteratorIT_T0_EES6_PKS4_S8_S8_RNS_8ios_baseES4_+0xf0>
10000356c: f94027e8    	ldr	x8, [sp, #0x48]
100003570: f1000108    	subs	x8, x8, #0x0
100003574: 1a9fc7e8    	cset	w8, le
100003578: 370005c8    	tbnz	w8, #0x0, 0x100003630 <__ZNSt3__116__pad_and_outputB8ne180100IcNS_11char_traitsIcEEEENS_19ostreambuf_iteratorIT_T0_EES6_PKS4_S8_S8_RNS_8ios_baseES4_+0x1b4>
10000357c: 14000001    	b	0x100003580 <__ZNSt3__116__pad_and_outputB8ne180100IcNS_11char_traitsIcEEEENS_19ostreambuf_iteratorIT_T0_EES6_PKS4_S8_S8_RNS_8ios_baseES4_+0x104>
100003580: f94027e1    	ldr	x1, [sp, #0x48]
100003584: 38dcf3a2    	ldursb	w2, [x29, #-0x31]
100003588: 9100a3e0    	add	x0, sp, #0x28
10000358c: f90003e0    	str	x0, [sp]
100003590: 940000a4    	bl	0x100003820 <__ZNSt3__112basic_stringIcNS_11char_traitsIcEENS_9allocatorIcEEEC1B8ne180100Emc>
100003594: f94003e0    	ldr	x0, [sp]
100003598: f85f03a8    	ldur	x8, [x29, #-0x10]
10000359c: f90007e8    	str	x8, [sp, #0x8]
1000035a0: 940000af    	bl	0x10000385c <__ZNSt3__112basic_stringIcNS_11char_traitsIcEENS_9allocatorIcEEE4dataB8ne180100Ev>
1000035a4: aa0003e1    	mov	x1, x0
1000035a8: f94007e0    	ldr	x0, [sp, #0x8]
1000035ac: f94027e2    	ldr	x2, [sp, #0x48]
1000035b0: 9400008d    	bl	0x1000037e4 <__ZNSt3__115basic_streambufIcNS_11char_traitsIcEEE5sputnB8ne180100EPKcl>
1000035b4: f9000be0    	str	x0, [sp, #0x10]
1000035b8: 14000001    	b	0x1000035bc <__ZNSt3__116__pad_and_outputB8ne180100IcNS_11char_traitsIcEEEENS_19ostreambuf_iteratorIT_T0_EES6_PKS4_S8_S8_RNS_8ios_baseES4_+0x140>
1000035bc: f9400be8    	ldr	x8, [sp, #0x10]
1000035c0: f94027e9    	ldr	x9, [sp, #0x48]
1000035c4: eb090108    	subs	x8, x8, x9
1000035c8: 1a9f17e8    	cset	w8, eq
1000035cc: 370001c8    	tbnz	w8, #0x0, 0x100003604 <__ZNSt3__116__pad_and_outputB8ne180100IcNS_11char_traitsIcEEEENS_19ostreambuf_iteratorIT_T0_EES6_PKS4_S8_S8_RNS_8ios_baseES4_+0x188>
1000035d0: 14000001    	b	0x1000035d4 <__ZNSt3__116__pad_and_outputB8ne180100IcNS_11char_traitsIcEEEENS_19ostreambuf_iteratorIT_T0_EES6_PKS4_S8_S8_RNS_8ios_baseES4_+0x158>
1000035d4: f81f03bf    	stur	xzr, [x29, #-0x10]
1000035d8: f85f03a8    	ldur	x8, [x29, #-0x10]
1000035dc: f81f83a8    	stur	x8, [x29, #-0x8]
1000035e0: 52800028    	mov	w8, #0x1                ; =1
1000035e4: b9001be8    	str	w8, [sp, #0x18]
1000035e8: 14000009    	b	0x10000360c <__ZNSt3__116__pad_and_outputB8ne180100IcNS_11char_traitsIcEEEENS_19ostreambuf_iteratorIT_T0_EES6_PKS4_S8_S8_RNS_8ios_baseES4_+0x190>
1000035ec: f90013e0    	str	x0, [sp, #0x20]
1000035f0: aa0103e8    	mov	x8, x1
1000035f4: b9001fe8    	str	w8, [sp, #0x1c]
1000035f8: 9100a3e0    	add	x0, sp, #0x28
1000035fc: 940001e7    	bl	0x100003d98 <_strlen+0x100003d98>
100003600: 1400002d    	b	0x1000036b4 <__ZNSt3__116__pad_and_outputB8ne180100IcNS_11char_traitsIcEEEENS_19ostreambuf_iteratorIT_T0_EES6_PKS4_S8_S8_RNS_8ios_baseES4_+0x238>
100003604: b9001bff    	str	wzr, [sp, #0x18]
100003608: 14000001    	b	0x10000360c <__ZNSt3__116__pad_and_outputB8ne180100IcNS_11char_traitsIcEEEENS_19ostreambuf_iteratorIT_T0_EES6_PKS4_S8_S8_RNS_8ios_baseES4_+0x190>
10000360c: 9100a3e0    	add	x0, sp, #0x28
100003610: 940001e2    	bl	0x100003d98 <_strlen+0x100003d98>
100003614: b9401be8    	ldr	w8, [sp, #0x18]
100003618: 71000108    	subs	w8, w8, #0x0
10000361c: 1a9f17e8    	cset	w8, eq
100003620: 37000068    	tbnz	w8, #0x0, 0x10000362c <__ZNSt3__116__pad_and_outputB8ne180100IcNS_11char_traitsIcEEEENS_19ostreambuf_iteratorIT_T0_EES6_PKS4_S8_S8_RNS_8ios_baseES4_+0x1b0>
100003624: 14000001    	b	0x100003628 <__ZNSt3__116__pad_and_outputB8ne180100IcNS_11char_traitsIcEEEENS_19ostreambuf_iteratorIT_T0_EES6_PKS4_S8_S8_RNS_8ios_baseES4_+0x1ac>
100003628: 1400001f    	b	0x1000036a4 <__ZNSt3__116__pad_and_outputB8ne180100IcNS_11char_traitsIcEEEENS_19ostreambuf_iteratorIT_T0_EES6_PKS4_S8_S8_RNS_8ios_baseES4_+0x228>
10000362c: 14000001    	b	0x100003630 <__ZNSt3__116__pad_and_outputB8ne180100IcNS_11char_traitsIcEEEENS_19ostreambuf_iteratorIT_T0_EES6_PKS4_S8_S8_RNS_8ios_baseES4_+0x1b4>
100003630: f85d83a8    	ldur	x8, [x29, #-0x28]
100003634: f85e03a9    	ldur	x9, [x29, #-0x20]
100003638: eb090108    	subs	x8, x8, x9
10000363c: f90023e8    	str	x8, [sp, #0x40]
100003640: f94023e8    	ldr	x8, [sp, #0x40]
100003644: f1000108    	subs	x8, x8, #0x0
100003648: 1a9fc7e8    	cset	w8, le
10000364c: 37000208    	tbnz	w8, #0x0, 0x10000368c <__ZNSt3__116__pad_and_outputB8ne180100IcNS_11char_traitsIcEEEENS_19ostreambuf_iteratorIT_T0_EES6_PKS4_S8_S8_RNS_8ios_baseES4_+0x210>
100003650: 14000001    	b	0x100003654 <__ZNSt3__116__pad_and_outputB8ne180100IcNS_11char_traitsIcEEEENS_19ostreambuf_iteratorIT_T0_EES6_PKS4_S8_S8_RNS_8ios_baseES4_+0x1d8>
100003654: f85f03a0    	ldur	x0, [x29, #-0x10]
100003658: f85e03a1    	ldur	x1, [x29, #-0x20]
10000365c: f94023e2    	ldr	x2, [sp, #0x40]
100003660: 94000061    	bl	0x1000037e4 <__ZNSt3__115basic_streambufIcNS_11char_traitsIcEEE5sputnB8ne180100EPKcl>
100003664: f94023e8    	ldr	x8, [sp, #0x40]
100003668: eb080008    	subs	x8, x0, x8
10000366c: 1a9f17e8    	cset	w8, eq
100003670: 370000c8    	tbnz	w8, #0x0, 0x100003688 <__ZNSt3__116__pad_and_outputB8ne180100IcNS_11char_traitsIcEEEENS_19ostreambuf_iteratorIT_T0_EES6_PKS4_S8_S8_RNS_8ios_baseES4_+0x20c>
100003674: 14000001    	b	0x100003678 <__ZNSt3__116__pad_and_outputB8ne180100IcNS_11char_traitsIcEEEENS_19ostreambuf_iteratorIT_T0_EES6_PKS4_S8_S8_RNS_8ios_baseES4_+0x1fc>
100003678: f81f03bf    	stur	xzr, [x29, #-0x10]
10000367c: f85f03a8    	ldur	x8, [x29, #-0x10]
100003680: f81f83a8    	stur	x8, [x29, #-0x8]
100003684: 14000008    	b	0x1000036a4 <__ZNSt3__116__pad_and_outputB8ne180100IcNS_11char_traitsIcEEEENS_19ostreambuf_iteratorIT_T0_EES6_PKS4_S8_S8_RNS_8ios_baseES4_+0x228>
100003688: 14000001    	b	0x10000368c <__ZNSt3__116__pad_and_outputB8ne180100IcNS_11char_traitsIcEEEENS_19ostreambuf_iteratorIT_T0_EES6_PKS4_S8_S8_RNS_8ios_baseES4_+0x210>
10000368c: f85d03a0    	ldur	x0, [x29, #-0x30]
100003690: d2800001    	mov	x1, #0x0                ; =0
100003694: 9400007c    	bl	0x100003884 <__ZNSt3__18ios_base5widthB8ne180100El>
100003698: f85f03a8    	ldur	x8, [x29, #-0x10]
10000369c: f81f83a8    	stur	x8, [x29, #-0x8]
1000036a0: 14000001    	b	0x1000036a4 <__ZNSt3__116__pad_and_outputB8ne180100IcNS_11char_traitsIcEEEENS_19ostreambuf_iteratorIT_T0_EES6_PKS4_S8_S8_RNS_8ios_baseES4_+0x228>
1000036a4: f85f83a0    	ldur	x0, [x29, #-0x8]
1000036a8: a9497bfd    	ldp	x29, x30, [sp, #0x90]
1000036ac: 910283ff    	add	sp, sp, #0xa0
1000036b0: d65f03c0    	ret
1000036b4: f94013e0    	ldr	x0, [sp, #0x20]
1000036b8: 940001ac    	bl	0x100003d68 <_strlen+0x100003d68>

00000001000036bc <__ZNSt3__119ostreambuf_iteratorIcNS_11char_traitsIcEEEC1B8ne180100ERNS_13basic_ostreamIcS2_EE>:
1000036bc: d100c3ff    	sub	sp, sp, #0x30
1000036c0: a9027bfd    	stp	x29, x30, [sp, #0x20]
1000036c4: 910083fd    	add	x29, sp, #0x20
1000036c8: f81f83a0    	stur	x0, [x29, #-0x8]
1000036cc: f9000be1    	str	x1, [sp, #0x10]
1000036d0: f85f83a0    	ldur	x0, [x29, #-0x8]
1000036d4: f90007e0    	str	x0, [sp, #0x8]
1000036d8: f9400be1    	ldr	x1, [sp, #0x10]
1000036dc: 94000123    	bl	0x100003b68 <__ZNSt3__119ostreambuf_iteratorIcNS_11char_traitsIcEEEC2B8ne180100ERNS_13basic_ostreamIcS2_EE>
1000036e0: f94007e0    	ldr	x0, [sp, #0x8]
1000036e4: a9427bfd    	ldp	x29, x30, [sp, #0x20]
1000036e8: 9100c3ff    	add	sp, sp, #0x30
1000036ec: d65f03c0    	ret

00000001000036f0 <__ZNKSt3__18ios_base5flagsB8ne180100Ev>:
1000036f0: d10043ff    	sub	sp, sp, #0x10
1000036f4: f90007e0    	str	x0, [sp, #0x8]
1000036f8: f94007e8    	ldr	x8, [sp, #0x8]
1000036fc: b9400900    	ldr	w0, [x8, #0x8]
100003700: 910043ff    	add	sp, sp, #0x10
100003704: d65f03c0    	ret

0000000100003708 <__ZNKSt3__19basic_iosIcNS_11char_traitsIcEEE4fillB8ne180100Ev>:
100003708: d10083ff    	sub	sp, sp, #0x20
10000370c: a9017bfd    	stp	x29, x30, [sp, #0x10]
100003710: 910043fd    	add	x29, sp, #0x10
100003714: f90007e0    	str	x0, [sp, #0x8]
100003718: f94007e8    	ldr	x8, [sp, #0x8]
10000371c: f90003e8    	str	x8, [sp]
100003720: 94000140    	bl	0x100003c20 <__ZNSt3__111char_traitsIcE3eofB8ne180100Ev>
100003724: f94003e8    	ldr	x8, [sp]
100003728: b9409101    	ldr	w1, [x8, #0x90]
10000372c: 94000133    	bl	0x100003bf8 <__ZNSt3__111char_traitsIcE11eq_int_typeB8ne180100Eii>
100003730: 36000120    	tbz	w0, #0x0, 0x100003754 <__ZNKSt3__19basic_iosIcNS_11char_traitsIcEEE4fillB8ne180100Ev+0x4c>
100003734: 14000001    	b	0x100003738 <__ZNKSt3__19basic_iosIcNS_11char_traitsIcEEE4fillB8ne180100Ev+0x30>
100003738: f94003e0    	ldr	x0, [sp]
10000373c: 52800401    	mov	w1, #0x20               ; =32
100003740: 9400013a    	bl	0x100003c28 <__ZNKSt3__19basic_iosIcNS_11char_traitsIcEEE5widenB8ne180100Ec>
100003744: f94003e9    	ldr	x9, [sp]
100003748: 13001c08    	sxtb	w8, w0
10000374c: b9009128    	str	w8, [x9, #0x90]
100003750: 14000001    	b	0x100003754 <__ZNKSt3__19basic_iosIcNS_11char_traitsIcEEE4fillB8ne180100Ev+0x4c>
100003754: f94003e8    	ldr	x8, [sp]
100003758: b9409108    	ldr	w8, [x8, #0x90]
10000375c: 13001d00    	sxtb	w0, w8
100003760: a9417bfd    	ldp	x29, x30, [sp, #0x10]
100003764: 910083ff    	add	sp, sp, #0x20
100003768: d65f03c0    	ret

000000010000376c <__ZNKSt3__119ostreambuf_iteratorIcNS_11char_traitsIcEEE6failedB8ne180100Ev>:
10000376c: d10043ff    	sub	sp, sp, #0x10
100003770: f90007e0    	str	x0, [sp, #0x8]
100003774: f94007e8    	ldr	x8, [sp, #0x8]
100003778: f9400108    	ldr	x8, [x8]
10000377c: f1000108    	subs	x8, x8, #0x0
100003780: 1a9f17e8    	cset	w8, eq
100003784: 12000100    	and	w0, w8, #0x1
100003788: 910043ff    	add	sp, sp, #0x10
10000378c: d65f03c0    	ret

0000000100003790 <__ZNSt3__19basic_iosIcNS_11char_traitsIcEEE8setstateB8ne180100Ej>:
100003790: d10083ff    	sub	sp, sp, #0x20
100003794: a9017bfd    	stp	x29, x30, [sp, #0x10]
100003798: 910043fd    	add	x29, sp, #0x10
10000379c: f90007e0    	str	x0, [sp, #0x8]
1000037a0: b90007e1    	str	w1, [sp, #0x4]
1000037a4: f94007e0    	ldr	x0, [sp, #0x8]
1000037a8: b94007e1    	ldr	w1, [sp, #0x4]
1000037ac: 94000159    	bl	0x100003d10 <__ZNSt3__18ios_base8setstateB8ne180100Ej>
1000037b0: a9417bfd    	ldp	x29, x30, [sp, #0x10]
1000037b4: 910083ff    	add	sp, sp, #0x20
1000037b8: d65f03c0    	ret

00000001000037bc <___clang_call_terminate>:
1000037bc: a9bf7bfd    	stp	x29, x30, [sp, #-0x10]!
1000037c0: 910003fd    	mov	x29, sp
1000037c4: 94000190    	bl	0x100003e04 <_strlen+0x100003e04>
1000037c8: 9400018c    	bl	0x100003df8 <_strlen+0x100003df8>

00000001000037cc <__ZNKSt3__18ios_base5widthB8ne180100Ev>:
1000037cc: d10043ff    	sub	sp, sp, #0x10
1000037d0: f90007e0    	str	x0, [sp, #0x8]
1000037d4: f94007e8    	ldr	x8, [sp, #0x8]
1000037d8: f9400d00    	ldr	x0, [x8, #0x18]
1000037dc: 910043ff    	add	sp, sp, #0x10
1000037e0: d65f03c0    	ret

00000001000037e4 <__ZNSt3__115basic_streambufIcNS_11char_traitsIcEEE5sputnB8ne180100EPKcl>:
1000037e4: d100c3ff    	sub	sp, sp, #0x30
1000037e8: a9027bfd    	stp	x29, x30, [sp, #0x20]
1000037ec: 910083fd    	add	x29, sp, #0x20
1000037f0: f81f83a0    	stur	x0, [x29, #-0x8]
1000037f4: f9000be1    	str	x1, [sp, #0x10]
1000037f8: f90007e2    	str	x2, [sp, #0x8]
1000037fc: f85f83a0    	ldur	x0, [x29, #-0x8]
100003800: f9400be1    	ldr	x1, [sp, #0x10]
100003804: f94007e2    	ldr	x2, [sp, #0x8]
100003808: f9400008    	ldr	x8, [x0]
10000380c: f9403108    	ldr	x8, [x8, #0x60]
100003810: d63f0100    	blr	x8
100003814: a9427bfd    	ldp	x29, x30, [sp, #0x20]
100003818: 9100c3ff    	add	sp, sp, #0x30
10000381c: d65f03c0    	ret

0000000100003820 <__ZNSt3__112basic_stringIcNS_11char_traitsIcEENS_9allocatorIcEEEC1B8ne180100Emc>:
100003820: d100c3ff    	sub	sp, sp, #0x30
100003824: a9027bfd    	stp	x29, x30, [sp, #0x20]
100003828: 910083fd    	add	x29, sp, #0x20
10000382c: f81f83a0    	stur	x0, [x29, #-0x8]
100003830: f9000be1    	str	x1, [sp, #0x10]
100003834: 39003fe2    	strb	w2, [sp, #0xf]
100003838: f85f83a0    	ldur	x0, [x29, #-0x8]
10000383c: f90003e0    	str	x0, [sp]
100003840: f9400be1    	ldr	x1, [sp, #0x10]
100003844: 39c03fe2    	ldrsb	w2, [sp, #0xf]
100003848: 9400001a    	bl	0x1000038b0 <__ZNSt3__112basic_stringIcNS_11char_traitsIcEENS_9allocatorIcEEEC2B8ne180100Emc>
10000384c: f94003e0    	ldr	x0, [sp]
100003850: a9427bfd    	ldp	x29, x30, [sp, #0x20]
100003854: 9100c3ff    	add	sp, sp, #0x30
100003858: d65f03c0    	ret

000000010000385c <__ZNSt3__112basic_stringIcNS_11char_traitsIcEENS_9allocatorIcEEE4dataB8ne180100Ev>:
10000385c: d10083ff    	sub	sp, sp, #0x20
100003860: a9017bfd    	stp	x29, x30, [sp, #0x10]
100003864: 910043fd    	add	x29, sp, #0x10
100003868: f90007e0    	str	x0, [sp, #0x8]
10000386c: f94007e0    	ldr	x0, [sp, #0x8]
100003870: 94000066    	bl	0x100003a08 <__ZNSt3__112basic_stringIcNS_11char_traitsIcEENS_9allocatorIcEEE13__get_pointerB8ne180100Ev>
100003874: 94000060    	bl	0x1000039f4 <__ZNSt3__112__to_addressB8ne180100IcEEPT_S2_>
100003878: a9417bfd    	ldp	x29, x30, [sp, #0x10]
10000387c: 910083ff    	add	sp, sp, #0x20
100003880: d65f03c0    	ret

0000000100003884 <__ZNSt3__18ios_base5widthB8ne180100El>:
100003884: d10083ff    	sub	sp, sp, #0x20
100003888: f9000fe0    	str	x0, [sp, #0x18]
10000388c: f9000be1    	str	x1, [sp, #0x10]
100003890: f9400fe9    	ldr	x9, [sp, #0x18]
100003894: f9400d28    	ldr	x8, [x9, #0x18]
100003898: f90007e8    	str	x8, [sp, #0x8]
10000389c: f9400be8    	ldr	x8, [sp, #0x10]
1000038a0: f9000d28    	str	x8, [x9, #0x18]
1000038a4: f94007e0    	ldr	x0, [sp, #0x8]
1000038a8: 910083ff    	add	sp, sp, #0x20
1000038ac: d65f03c0    	ret

00000001000038b0 <__ZNSt3__112basic_stringIcNS_11char_traitsIcEENS_9allocatorIcEEEC2B8ne180100Emc>:
1000038b0: d100c3ff    	sub	sp, sp, #0x30
1000038b4: a9027bfd    	stp	x29, x30, [sp, #0x20]
1000038b8: 910083fd    	add	x29, sp, #0x20
1000038bc: f81f83a0    	stur	x0, [x29, #-0x8]
1000038c0: f9000be1    	str	x1, [sp, #0x10]
1000038c4: 39003fe2    	strb	w2, [sp, #0xf]
1000038c8: f85f83a0    	ldur	x0, [x29, #-0x8]
1000038cc: f90003e0    	str	x0, [sp]
1000038d0: 91003be1    	add	x1, sp, #0xe
1000038d4: 910037e2    	add	x2, sp, #0xd
1000038d8: 94000009    	bl	0x1000038fc <__ZNSt3__117__compressed_pairINS_12basic_stringIcNS_11char_traitsIcEENS_9allocatorIcEEE5__repES5_EC1B8ne180100INS_18__default_init_tagESA_EEOT_OT0_>
1000038dc: f94003e0    	ldr	x0, [sp]
1000038e0: f9400be1    	ldr	x1, [sp, #0x10]
1000038e4: 39c03fe2    	ldrsb	w2, [sp, #0xf]
1000038e8: 94000129    	bl	0x100003d8c <_strlen+0x100003d8c>
1000038ec: f94003e0    	ldr	x0, [sp]
1000038f0: a9427bfd    	ldp	x29, x30, [sp, #0x20]
1000038f4: 9100c3ff    	add	sp, sp, #0x30
1000038f8: d65f03c0    	ret

00000001000038fc <__ZNSt3__117__compressed_pairINS_12basic_stringIcNS_11char_traitsIcEENS_9allocatorIcEEE5__repES5_EC1B8ne180100INS_18__default_init_tagESA_EEOT_OT0_>:
1000038fc: d100c3ff    	sub	sp, sp, #0x30
100003900: a9027bfd    	stp	x29, x30, [sp, #0x20]
100003904: 910083fd    	add	x29, sp, #0x20
100003908: f81f83a0    	stur	x0, [x29, #-0x8]
10000390c: f9000be1    	str	x1, [sp, #0x10]
100003910: f90007e2    	str	x2, [sp, #0x8]
100003914: f85f83a0    	ldur	x0, [x29, #-0x8]
100003918: f90003e0    	str	x0, [sp]
10000391c: f9400be1    	ldr	x1, [sp, #0x10]
100003920: f94007e2    	ldr	x2, [sp, #0x8]
100003924: 94000005    	bl	0x100003938 <__ZNSt3__117__compressed_pairINS_12basic_stringIcNS_11char_traitsIcEENS_9allocatorIcEEE5__repES5_EC2B8ne180100INS_18__default_init_tagESA_EEOT_OT0_>
100003928: f94003e0    	ldr	x0, [sp]
10000392c: a9427bfd    	ldp	x29, x30, [sp, #0x20]
100003930: 9100c3ff    	add	sp, sp, #0x30
100003934: d65f03c0    	ret

0000000100003938 <__ZNSt3__117__compressed_pairINS_12basic_stringIcNS_11char_traitsIcEENS_9allocatorIcEEE5__repES5_EC2B8ne180100INS_18__default_init_tagESA_EEOT_OT0_>:
100003938: d10103ff    	sub	sp, sp, #0x40
10000393c: a9037bfd    	stp	x29, x30, [sp, #0x30]
100003940: 9100c3fd    	add	x29, sp, #0x30
100003944: f81f83a0    	stur	x0, [x29, #-0x8]
100003948: f81f03a1    	stur	x1, [x29, #-0x10]
10000394c: f9000fe2    	str	x2, [sp, #0x18]
100003950: f85f83a0    	ldur	x0, [x29, #-0x8]
100003954: f90007e0    	str	x0, [sp, #0x8]
100003958: 94000007    	bl	0x100003974 <__ZNSt3__122__compressed_pair_elemINS_12basic_stringIcNS_11char_traitsIcEENS_9allocatorIcEEE5__repELi0ELb0EEC2B8ne180100ENS_18__default_init_tagE>
10000395c: f94007e0    	ldr	x0, [sp, #0x8]
100003960: 9400000a    	bl	0x100003988 <__ZNSt3__122__compressed_pair_elemINS_9allocatorIcEELi1ELb1EEC2B8ne180100ENS_18__default_init_tagE>
100003964: f94007e0    	ldr	x0, [sp, #0x8]
100003968: a9437bfd    	ldp	x29, x30, [sp, #0x30]
10000396c: 910103ff    	add	sp, sp, #0x40
100003970: d65f03c0    	ret

0000000100003974 <__ZNSt3__122__compressed_pair_elemINS_12basic_stringIcNS_11char_traitsIcEENS_9allocatorIcEEE5__repELi0ELb0EEC2B8ne180100ENS_18__default_init_tagE>:
100003974: d10043ff    	sub	sp, sp, #0x10
100003978: f90003e0    	str	x0, [sp]
10000397c: f94003e0    	ldr	x0, [sp]
100003980: 910043ff    	add	sp, sp, #0x10
100003984: d65f03c0    	ret

0000000100003988 <__ZNSt3__122__compressed_pair_elemINS_9allocatorIcEELi1ELb1EEC2B8ne180100ENS_18__default_init_tagE>:
100003988: d100c3ff    	sub	sp, sp, #0x30
10000398c: a9027bfd    	stp	x29, x30, [sp, #0x20]
100003990: 910083fd    	add	x29, sp, #0x20
100003994: f9000be0    	str	x0, [sp, #0x10]
100003998: f9400be0    	ldr	x0, [sp, #0x10]
10000399c: f90007e0    	str	x0, [sp, #0x8]
1000039a0: 94000005    	bl	0x1000039b4 <__ZNSt3__19allocatorIcEC2B8ne180100Ev>
1000039a4: f94007e0    	ldr	x0, [sp, #0x8]
1000039a8: a9427bfd    	ldp	x29, x30, [sp, #0x20]
1000039ac: 9100c3ff    	add	sp, sp, #0x30
1000039b0: d65f03c0    	ret

00000001000039b4 <__ZNSt3__19allocatorIcEC2B8ne180100Ev>:
1000039b4: d10083ff    	sub	sp, sp, #0x20
1000039b8: a9017bfd    	stp	x29, x30, [sp, #0x10]
1000039bc: 910043fd    	add	x29, sp, #0x10
1000039c0: f90007e0    	str	x0, [sp, #0x8]
1000039c4: f94007e0    	ldr	x0, [sp, #0x8]
1000039c8: f90003e0    	str	x0, [sp]
1000039cc: 94000005    	bl	0x1000039e0 <__ZNSt3__116__non_trivial_ifILb1ENS_9allocatorIcEEEC2B8ne180100Ev>
1000039d0: f94003e0    	ldr	x0, [sp]
1000039d4: a9417bfd    	ldp	x29, x30, [sp, #0x10]
1000039d8: 910083ff    	add	sp, sp, #0x20
1000039dc: d65f03c0    	ret

00000001000039e0 <__ZNSt3__116__non_trivial_ifILb1ENS_9allocatorIcEEEC2B8ne180100Ev>:
1000039e0: d10043ff    	sub	sp, sp, #0x10
1000039e4: f90007e0    	str	x0, [sp, #0x8]
1000039e8: f94007e0    	ldr	x0, [sp, #0x8]
1000039ec: 910043ff    	add	sp, sp, #0x10
1000039f0: d65f03c0    	ret

00000001000039f4 <__ZNSt3__112__to_addressB8ne180100IcEEPT_S2_>:
1000039f4: d10043ff    	sub	sp, sp, #0x10
1000039f8: f90007e0    	str	x0, [sp, #0x8]
1000039fc: f94007e0    	ldr	x0, [sp, #0x8]
100003a00: 910043ff    	add	sp, sp, #0x10
100003a04: d65f03c0    	ret

0000000100003a08 <__ZNSt3__112basic_stringIcNS_11char_traitsIcEENS_9allocatorIcEEE13__get_pointerB8ne180100Ev>:
100003a08: d100c3ff    	sub	sp, sp, #0x30
100003a0c: a9027bfd    	stp	x29, x30, [sp, #0x20]
100003a10: 910083fd    	add	x29, sp, #0x20
100003a14: f81f83a0    	stur	x0, [x29, #-0x8]
100003a18: f85f83a0    	ldur	x0, [x29, #-0x8]
100003a1c: f9000be0    	str	x0, [sp, #0x10]
100003a20: 9400000f    	bl	0x100003a5c <__ZNKSt3__112basic_stringIcNS_11char_traitsIcEENS_9allocatorIcEEE9__is_longB8ne180100Ev>
100003a24: 360000c0    	tbz	w0, #0x0, 0x100003a3c <__ZNSt3__112basic_stringIcNS_11char_traitsIcEENS_9allocatorIcEEE13__get_pointerB8ne180100Ev+0x34>
100003a28: 14000001    	b	0x100003a2c <__ZNSt3__112basic_stringIcNS_11char_traitsIcEENS_9allocatorIcEEE13__get_pointerB8ne180100Ev+0x24>
100003a2c: f9400be0    	ldr	x0, [sp, #0x10]
100003a30: 94000019    	bl	0x100003a94 <__ZNSt3__112basic_stringIcNS_11char_traitsIcEENS_9allocatorIcEEE18__get_long_pointerB8ne180100Ev>
100003a34: f90007e0    	str	x0, [sp, #0x8]
100003a38: 14000005    	b	0x100003a4c <__ZNSt3__112basic_stringIcNS_11char_traitsIcEENS_9allocatorIcEEE13__get_pointerB8ne180100Ev+0x44>
100003a3c: f9400be0    	ldr	x0, [sp, #0x10]
100003a40: 9400001f    	bl	0x100003abc <__ZNSt3__112basic_stringIcNS_11char_traitsIcEENS_9allocatorIcEEE19__get_short_pointerB8ne180100Ev>
100003a44: f90007e0    	str	x0, [sp, #0x8]
100003a48: 14000001    	b	0x100003a4c <__ZNSt3__112basic_stringIcNS_11char_traitsIcEENS_9allocatorIcEEE13__get_pointerB8ne180100Ev+0x44>
100003a4c: f94007e0    	ldr	x0, [sp, #0x8]
100003a50: a9427bfd    	ldp	x29, x30, [sp, #0x20]
100003a54: 9100c3ff    	add	sp, sp, #0x30
100003a58: d65f03c0    	ret

0000000100003a5c <__ZNKSt3__112basic_stringIcNS_11char_traitsIcEENS_9allocatorIcEEE9__is_longB8ne180100Ev>:
100003a5c: d10083ff    	sub	sp, sp, #0x20
100003a60: a9017bfd    	stp	x29, x30, [sp, #0x10]
100003a64: 910043fd    	add	x29, sp, #0x10
100003a68: f90007e0    	str	x0, [sp, #0x8]
100003a6c: f94007e0    	ldr	x0, [sp, #0x8]
100003a70: 9400001d    	bl	0x100003ae4 <__ZNKSt3__117__compressed_pairINS_12basic_stringIcNS_11char_traitsIcEENS_9allocatorIcEEE5__repES5_E5firstB8ne180100Ev>
100003a74: 39405c08    	ldrb	w8, [x0, #0x17]
100003a78: 53077d08    	lsr	w8, w8, #7
100003a7c: 72001d08    	ands	w8, w8, #0xff
100003a80: 1a9f07e8    	cset	w8, ne
100003a84: 12000100    	and	w0, w8, #0x1
100003a88: a9417bfd    	ldp	x29, x30, [sp, #0x10]
100003a8c: 910083ff    	add	sp, sp, #0x20
100003a90: d65f03c0    	ret

0000000100003a94 <__ZNSt3__112basic_stringIcNS_11char_traitsIcEENS_9allocatorIcEEE18__get_long_pointerB8ne180100Ev>:
100003a94: d10083ff    	sub	sp, sp, #0x20
100003a98: a9017bfd    	stp	x29, x30, [sp, #0x10]
100003a9c: 910043fd    	add	x29, sp, #0x10
100003aa0: f90007e0    	str	x0, [sp, #0x8]
100003aa4: f94007e0    	ldr	x0, [sp, #0x8]
100003aa8: 9400001d    	bl	0x100003b1c <__ZNSt3__117__compressed_pairINS_12basic_stringIcNS_11char_traitsIcEENS_9allocatorIcEEE5__repES5_E5firstB8ne180100Ev>
100003aac: f9400000    	ldr	x0, [x0]
100003ab0: a9417bfd    	ldp	x29, x30, [sp, #0x10]
100003ab4: 910083ff    	add	sp, sp, #0x20
100003ab8: d65f03c0    	ret

0000000100003abc <__ZNSt3__112basic_stringIcNS_11char_traitsIcEENS_9allocatorIcEEE19__get_short_pointerB8ne180100Ev>:
100003abc: d10083ff    	sub	sp, sp, #0x20
100003ac0: a9017bfd    	stp	x29, x30, [sp, #0x10]
100003ac4: 910043fd    	add	x29, sp, #0x10
100003ac8: f90007e0    	str	x0, [sp, #0x8]
100003acc: f94007e0    	ldr	x0, [sp, #0x8]
100003ad0: 94000013    	bl	0x100003b1c <__ZNSt3__117__compressed_pairINS_12basic_stringIcNS_11char_traitsIcEENS_9allocatorIcEEE5__repES5_E5firstB8ne180100Ev>
100003ad4: 94000020    	bl	0x100003b54 <__ZNSt3__114pointer_traitsIPcE10pointer_toB8ne180100ERc>
100003ad8: a9417bfd    	ldp	x29, x30, [sp, #0x10]
100003adc: 910083ff    	add	sp, sp, #0x20
100003ae0: d65f03c0    	ret

0000000100003ae4 <__ZNKSt3__117__compressed_pairINS_12basic_stringIcNS_11char_traitsIcEENS_9allocatorIcEEE5__repES5_E5firstB8ne180100Ev>:
100003ae4: d10083ff    	sub	sp, sp, #0x20
100003ae8: a9017bfd    	stp	x29, x30, [sp, #0x10]
100003aec: 910043fd    	add	x29, sp, #0x10
100003af0: f90007e0    	str	x0, [sp, #0x8]
100003af4: f94007e0    	ldr	x0, [sp, #0x8]
100003af8: 94000004    	bl	0x100003b08 <__ZNKSt3__122__compressed_pair_elemINS_12basic_stringIcNS_11char_traitsIcEENS_9allocatorIcEEE5__repELi0ELb0EE5__getB8ne180100Ev>
100003afc: a9417bfd    	ldp	x29, x30, [sp, #0x10]
100003b00: 910083ff    	add	sp, sp, #0x20
100003b04: d65f03c0    	ret

0000000100003b08 <__ZNKSt3__122__compressed_pair_elemINS_12basic_stringIcNS_11char_traitsIcEENS_9allocatorIcEEE5__repELi0ELb0EE5__getB8ne180100Ev>:
100003b08: d10043ff    	sub	sp, sp, #0x10
100003b0c: f90007e0    	str	x0, [sp, #0x8]
100003b10: f94007e0    	ldr	x0, [sp, #0x8]
100003b14: 910043ff    	add	sp, sp, #0x10
100003b18: d65f03c0    	ret

0000000100003b1c <__ZNSt3__117__compressed_pairINS_12basic_stringIcNS_11char_traitsIcEENS_9allocatorIcEEE5__repES5_E5firstB8ne180100Ev>:
100003b1c: d10083ff    	sub	sp, sp, #0x20
100003b20: a9017bfd    	stp	x29, x30, [sp, #0x10]
100003b24: 910043fd    	add	x29, sp, #0x10
100003b28: f90007e0    	str	x0, [sp, #0x8]
100003b2c: f94007e0    	ldr	x0, [sp, #0x8]
100003b30: 94000004    	bl	0x100003b40 <__ZNSt3__122__compressed_pair_elemINS_12basic_stringIcNS_11char_traitsIcEENS_9allocatorIcEEE5__repELi0ELb0EE5__getB8ne180100Ev>
100003b34: a9417bfd    	ldp	x29, x30, [sp, #0x10]
100003b38: 910083ff    	add	sp, sp, #0x20
100003b3c: d65f03c0    	ret

0000000100003b40 <__ZNSt3__122__compressed_pair_elemINS_12basic_stringIcNS_11char_traitsIcEENS_9allocatorIcEEE5__repELi0ELb0EE5__getB8ne180100Ev>:
100003b40: d10043ff    	sub	sp, sp, #0x10
100003b44: f90007e0    	str	x0, [sp, #0x8]
100003b48: f94007e0    	ldr	x0, [sp, #0x8]
100003b4c: 910043ff    	add	sp, sp, #0x10
100003b50: d65f03c0    	ret

0000000100003b54 <__ZNSt3__114pointer_traitsIPcE10pointer_toB8ne180100ERc>:
100003b54: d10043ff    	sub	sp, sp, #0x10
100003b58: f90007e0    	str	x0, [sp, #0x8]
100003b5c: f94007e0    	ldr	x0, [sp, #0x8]
100003b60: 910043ff    	add	sp, sp, #0x10
100003b64: d65f03c0    	ret

0000000100003b68 <__ZNSt3__119ostreambuf_iteratorIcNS_11char_traitsIcEEEC2B8ne180100ERNS_13basic_ostreamIcS2_EE>:
100003b68: d100c3ff    	sub	sp, sp, #0x30
100003b6c: a9027bfd    	stp	x29, x30, [sp, #0x20]
100003b70: 910083fd    	add	x29, sp, #0x20
100003b74: f81f83a0    	stur	x0, [x29, #-0x8]
100003b78: f9000be1    	str	x1, [sp, #0x10]
100003b7c: f85f83a8    	ldur	x8, [x29, #-0x8]
100003b80: f90003e8    	str	x8, [sp]
100003b84: f9400be8    	ldr	x8, [sp, #0x10]
100003b88: f9400109    	ldr	x9, [x8]
100003b8c: f85e8129    	ldur	x9, [x9, #-0x18]
100003b90: 8b090100    	add	x0, x8, x9
100003b94: 9400000a    	bl	0x100003bbc <__ZNKSt3__19basic_iosIcNS_11char_traitsIcEEE5rdbufB8ne180100Ev>
100003b98: f90007e0    	str	x0, [sp, #0x8]
100003b9c: 14000001    	b	0x100003ba0 <__ZNSt3__119ostreambuf_iteratorIcNS_11char_traitsIcEEEC2B8ne180100ERNS_13basic_ostreamIcS2_EE+0x38>
100003ba0: f94003e0    	ldr	x0, [sp]
100003ba4: f94007e8    	ldr	x8, [sp, #0x8]
100003ba8: f9000008    	str	x8, [x0]
100003bac: a9427bfd    	ldp	x29, x30, [sp, #0x20]
100003bb0: 9100c3ff    	add	sp, sp, #0x30
100003bb4: d65f03c0    	ret
100003bb8: 97ffff01    	bl	0x1000037bc <___clang_call_terminate>

0000000100003bbc <__ZNKSt3__19basic_iosIcNS_11char_traitsIcEEE5rdbufB8ne180100Ev>:
100003bbc: d10083ff    	sub	sp, sp, #0x20
100003bc0: a9017bfd    	stp	x29, x30, [sp, #0x10]
100003bc4: 910043fd    	add	x29, sp, #0x10
100003bc8: f90007e0    	str	x0, [sp, #0x8]
100003bcc: f94007e0    	ldr	x0, [sp, #0x8]
100003bd0: 94000004    	bl	0x100003be0 <__ZNKSt3__18ios_base5rdbufB8ne180100Ev>
100003bd4: a9417bfd    	ldp	x29, x30, [sp, #0x10]
100003bd8: 910083ff    	add	sp, sp, #0x20
100003bdc: d65f03c0    	ret

0000000100003be0 <__ZNKSt3__18ios_base5rdbufB8ne180100Ev>:
100003be0: d10043ff    	sub	sp, sp, #0x10
100003be4: f90007e0    	str	x0, [sp, #0x8]
100003be8: f94007e8    	ldr	x8, [sp, #0x8]
100003bec: f9401500    	ldr	x0, [x8, #0x28]
100003bf0: 910043ff    	add	sp, sp, #0x10
100003bf4: d65f03c0    	ret

0000000100003bf8 <__ZNSt3__111char_traitsIcE11eq_int_typeB8ne180100Eii>:
100003bf8: d10043ff    	sub	sp, sp, #0x10
100003bfc: b9000fe0    	str	w0, [sp, #0xc]
100003c00: b9000be1    	str	w1, [sp, #0x8]
100003c04: b9400fe8    	ldr	w8, [sp, #0xc]
100003c08: b9400be9    	ldr	w9, [sp, #0x8]
100003c0c: 6b090108    	subs	w8, w8, w9
100003c10: 1a9f17e8    	cset	w8, eq
100003c14: 12000100    	and	w0, w8, #0x1
100003c18: 910043ff    	add	sp, sp, #0x10
100003c1c: d65f03c0    	ret

0000000100003c20 <__ZNSt3__111char_traitsIcE3eofB8ne180100Ev>:
100003c20: 12800000    	mov	w0, #-0x1               ; =-1
100003c24: d65f03c0    	ret

0000000100003c28 <__ZNKSt3__19basic_iosIcNS_11char_traitsIcEEE5widenB8ne180100Ec>:
100003c28: d10143ff    	sub	sp, sp, #0x50
100003c2c: a9047bfd    	stp	x29, x30, [sp, #0x40]
100003c30: 910103fd    	add	x29, sp, #0x40
100003c34: f81f83a0    	stur	x0, [x29, #-0x8]
100003c38: 381f73a1    	sturb	w1, [x29, #-0x9]
100003c3c: f85f83a0    	ldur	x0, [x29, #-0x8]
100003c40: d10063a8    	sub	x8, x29, #0x18
100003c44: f90007e8    	str	x8, [sp, #0x8]
100003c48: 9400004e    	bl	0x100003d80 <_strlen+0x100003d80>
100003c4c: f94007e0    	ldr	x0, [sp, #0x8]
100003c50: 94000017    	bl	0x100003cac <__ZNSt3__19use_facetB8ne180100INS_5ctypeIcEEEERKT_RKNS_6localeE>
100003c54: f9000be0    	str	x0, [sp, #0x10]
100003c58: 14000001    	b	0x100003c5c <__ZNKSt3__19basic_iosIcNS_11char_traitsIcEEE5widenB8ne180100Ec+0x34>
100003c5c: f9400be0    	ldr	x0, [sp, #0x10]
100003c60: 38df73a1    	ldursb	w1, [x29, #-0x9]
100003c64: 9400001d    	bl	0x100003cd8 <__ZNKSt3__15ctypeIcE5widenB8ne180100Ec>
100003c68: b90007e0    	str	w0, [sp, #0x4]
100003c6c: 14000001    	b	0x100003c70 <__ZNKSt3__19basic_iosIcNS_11char_traitsIcEEE5widenB8ne180100Ec+0x48>
100003c70: d10063a0    	sub	x0, x29, #0x18
100003c74: 94000058    	bl	0x100003dd4 <_strlen+0x100003dd4>
100003c78: b94007e8    	ldr	w8, [sp, #0x4]
100003c7c: 13001d00    	sxtb	w0, w8
100003c80: a9447bfd    	ldp	x29, x30, [sp, #0x40]
100003c84: 910143ff    	add	sp, sp, #0x50
100003c88: d65f03c0    	ret
100003c8c: f90013e0    	str	x0, [sp, #0x20]
100003c90: aa0103e8    	mov	x8, x1
100003c94: b9001fe8    	str	w8, [sp, #0x1c]
100003c98: d10063a0    	sub	x0, x29, #0x18
100003c9c: 9400004e    	bl	0x100003dd4 <_strlen+0x100003dd4>
100003ca0: 14000001    	b	0x100003ca4 <__ZNKSt3__19basic_iosIcNS_11char_traitsIcEEE5widenB8ne180100Ec+0x7c>
100003ca4: f94013e0    	ldr	x0, [sp, #0x20]
100003ca8: 94000030    	bl	0x100003d68 <_strlen+0x100003d68>

0000000100003cac <__ZNSt3__19use_facetB8ne180100INS_5ctypeIcEEEERKT_RKNS_6localeE>:
100003cac: d10083ff    	sub	sp, sp, #0x20
100003cb0: a9017bfd    	stp	x29, x30, [sp, #0x10]
100003cb4: 910043fd    	add	x29, sp, #0x10
100003cb8: f90007e0    	str	x0, [sp, #0x8]
100003cbc: f94007e0    	ldr	x0, [sp, #0x8]
100003cc0: b0000001    	adrp	x1, 0x100004000 <_strlen+0x100004000>
100003cc4: f9402821    	ldr	x1, [x1, #0x50]
100003cc8: 9400002b    	bl	0x100003d74 <_strlen+0x100003d74>
100003ccc: a9417bfd    	ldp	x29, x30, [sp, #0x10]
100003cd0: 910083ff    	add	sp, sp, #0x20
100003cd4: d65f03c0    	ret

0000000100003cd8 <__ZNKSt3__15ctypeIcE5widenB8ne180100Ec>:
100003cd8: d10083ff    	sub	sp, sp, #0x20
100003cdc: a9017bfd    	stp	x29, x30, [sp, #0x10]
100003ce0: 910043fd    	add	x29, sp, #0x10
100003ce4: f90007e0    	str	x0, [sp, #0x8]
100003ce8: 39001fe1    	strb	w1, [sp, #0x7]
100003cec: f94007e0    	ldr	x0, [sp, #0x8]
100003cf0: 39c01fe1    	ldrsb	w1, [sp, #0x7]
100003cf4: f9400008    	ldr	x8, [x0]
100003cf8: f9401d08    	ldr	x8, [x8, #0x38]
100003cfc: d63f0100    	blr	x8
100003d00: 13001c00    	sxtb	w0, w0
100003d04: a9417bfd    	ldp	x29, x30, [sp, #0x10]
100003d08: 910083ff    	add	sp, sp, #0x20
100003d0c: d65f03c0    	ret

0000000100003d10 <__ZNSt3__18ios_base8setstateB8ne180100Ej>:
100003d10: d10083ff    	sub	sp, sp, #0x20
100003d14: a9017bfd    	stp	x29, x30, [sp, #0x10]
100003d18: 910043fd    	add	x29, sp, #0x10
100003d1c: f90007e0    	str	x0, [sp, #0x8]
100003d20: b90007e1    	str	w1, [sp, #0x4]
100003d24: f94007e0    	ldr	x0, [sp, #0x8]
100003d28: b9402008    	ldr	w8, [x0, #0x20]
100003d2c: b94007e9    	ldr	w9, [sp, #0x4]
100003d30: 2a090101    	orr	w1, w8, w9
100003d34: 9400002e    	bl	0x100003dec <_strlen+0x100003dec>
100003d38: a9417bfd    	ldp	x29, x30, [sp, #0x10]
100003d3c: 910083ff    	add	sp, sp, #0x20
100003d40: d65f03c0    	ret

0000000100003d44 <__ZNSt3__118__constexpr_strlenB8ne180100EPKc>:
100003d44: d10083ff    	sub	sp, sp, #0x20
100003d48: a9017bfd    	stp	x29, x30, [sp, #0x10]
100003d4c: 910043fd    	add	x29, sp, #0x10
100003d50: f90007e0    	str	x0, [sp, #0x8]
100003d54: f94007e0    	ldr	x0, [sp, #0x8]
100003d58: 94000031    	bl	0x100003e1c <_strlen+0x100003e1c>
100003d5c: a9417bfd    	ldp	x29, x30, [sp, #0x10]
100003d60: 910083ff    	add	sp, sp, #0x20
100003d64: d65f03c0    	ret

Disassembly of section __TEXT,__stubs:

0000000100003d68 <__stubs>:
100003d68: b0000010    	adrp	x16, 0x100004000 <_strlen+0x100004000>
100003d6c: f9400210    	ldr	x16, [x16]
100003d70: d61f0200    	br	x16
100003d74: b0000010    	adrp	x16, 0x100004000 <_strlen+0x100004000>
100003d78: f9400610    	ldr	x16, [x16, #0x8]
100003d7c: d61f0200    	br	x16
100003d80: b0000010    	adrp	x16, 0x100004000 <_strlen+0x100004000>
100003d84: f9400a10    	ldr	x16, [x16, #0x10]
100003d88: d61f0200    	br	x16
100003d8c: b0000010    	adrp	x16, 0x100004000 <_strlen+0x100004000>
100003d90: f9400e10    	ldr	x16, [x16, #0x18]
100003d94: d61f0200    	br	x16
100003d98: b0000010    	adrp	x16, 0x100004000 <_strlen+0x100004000>
100003d9c: f9401210    	ldr	x16, [x16, #0x20]
100003da0: d61f0200    	br	x16
100003da4: b0000010    	adrp	x16, 0x100004000 <_strlen+0x100004000>
100003da8: f9401610    	ldr	x16, [x16, #0x28]
100003dac: d61f0200    	br	x16
100003db0: b0000010    	adrp	x16, 0x100004000 <_strlen+0x100004000>
100003db4: f9401a10    	ldr	x16, [x16, #0x30]
100003db8: d61f0200    	br	x16
100003dbc: b0000010    	adrp	x16, 0x100004000 <_strlen+0x100004000>
100003dc0: f9401e10    	ldr	x16, [x16, #0x38]
100003dc4: d61f0200    	br	x16
100003dc8: b0000010    	adrp	x16, 0x100004000 <_strlen+0x100004000>
100003dcc: f9402210    	ldr	x16, [x16, #0x40]
100003dd0: d61f0200    	br	x16
100003dd4: b0000010    	adrp	x16, 0x100004000 <_strlen+0x100004000>
100003dd8: f9402e10    	ldr	x16, [x16, #0x58]
100003ddc: d61f0200    	br	x16
100003de0: b0000010    	adrp	x16, 0x100004000 <_strlen+0x100004000>
100003de4: f9403210    	ldr	x16, [x16, #0x60]
100003de8: d61f0200    	br	x16
100003dec: b0000010    	adrp	x16, 0x100004000 <_strlen+0x100004000>
100003df0: f9403610    	ldr	x16, [x16, #0x68]
100003df4: d61f0200    	br	x16
100003df8: b0000010    	adrp	x16, 0x100004000 <_strlen+0x100004000>
100003dfc: f9403a10    	ldr	x16, [x16, #0x70]
100003e00: d61f0200    	br	x16
100003e04: b0000010    	adrp	x16, 0x100004000 <_strlen+0x100004000>
100003e08: f9403e10    	ldr	x16, [x16, #0x78]
100003e0c: d61f0200    	br	x16
100003e10: b0000010    	adrp	x16, 0x100004000 <_strlen+0x100004000>
100003e14: f9404210    	ldr	x16, [x16, #0x80]
100003e18: d61f0200    	br	x16
100003e1c: b0000010    	adrp	x16, 0x100004000 <_strlen+0x100004000>
100003e20: f9404a10    	ldr	x16, [x16, #0x90]
100003e24: d61f0200    	br	x16
